(dp1
S'output'
p2
S"<type 'exceptions.AttributeError'> 'NoneType' object has no attribute 'first_name'"
p3
sS'layer'
p4
S'/home/leo/projects/AnnotatIt/annotatit-beta/heroku/annotatit-beta/applications/AnnotatIt/models/db.py'
p5
sS'code'
p6
S'# -*- coding: utf-8 -*-\n\n#########################################################################\n## This scaffolding model makes your app work on Google App Engine too\n## File is released under public domain and you can use without limitations\n#########################################################################\n\n## if SSL/HTTPS is properly configured and you want all HTTP requests to\n## be redirected to HTTPS, uncomment the line below:\n# request.requires_https()\n\nfrom datetime import datetime\nimport uuid\nimport time\n#import urllib2\nfrom gluon.contrib.heroku import get_db                                         \ndb = get_db() \n\n\nAPP_NAME = "AnnotatIt"\nAPP_DOMAIN_NAME = "AnnotatIt.com"\nAPP_DOMAIN_NAME_2 = "Annotat.It" #TODO register if available\n############################################\n##Contact email ... this should NEVER be public\n##########################################\nWEBMASTERS_EMAIL_NAME = "leo"\nWEBMASTERS_EMAIL_DOMAIN = "annotatit.com"\nWEBMASTERS_EMAIL_DOMAIN_2 = "annotat.it"\nWEBMASTERS_EMAIL = "leo@annotatit.com"\nWEBMASTERS_EMAIL_2 = "leo@annotat.it"\n\n## by default give a view/generic.extension to all actions from localhost\n## none otherwise. a pattern can be \'controller/function.extension\'\nresponse.generic_patterns = [\'*\'] if request.is_local else []\n## (optional) optimize handling of static files\n# response.optimize_css = \'concat,minify,inline\'\n# response.optimize_js = \'concat,minify,inline\'\n\nfrom gluon.tools import Auth, Crud, Service, PluginManager, prettydate\nauth = Auth(db)\ncrud, service, plugins = Crud(db), Service(), PluginManager()\n\n## create all tables needed by auth if not custom tables\nauth.define_tables(username=False, signature=False)\n\n## configure email\nmail = auth.settings.mailer\nmail.settings.server = \'logging\' or \'smtp.gmail.com:587\'\nmail.settings.sender = \'you@gmail.com\'\nmail.settings.login = \'username:password\'\n\n## configure auth policy\nauth.settings.registration_requires_verification = False\nauth.settings.registration_requires_approval = False\nauth.settings.reset_password_requires_verification = True\n\n## after defining tables, uncomment below to enable auditing\n# auth.enable_record_versioning(db)\n\n#for user information\ndb.define_table(\'user_info\',\n    Field(\'user_id\', \'reference auth_user\', default=auth.user_id, requires=IS_NOT_EMPTY()),\n    Field(\'nickname\', length=50, default=auth.user.first_name, requires=IS_NOT_EMPTY()),\n    Field(\'image\', \'upload\', uploadfield=\'image_file\'),\n    Field(\'image_file\', \'blob\'))\n\n################\n# Media linking\n################\n#media refers to any type of media either video or audio\ndb.define_table(\'media\', \n    Field(\'owner_id\', \'reference auth_user\', default=auth.user_id, requires=IS_NOT_EMPTY()),\n    Field(\'title\', length=256, default="No title"),\n    #Field(\'subtitle\', length=256, default=""),\n    Field(\'media_annotate_key\', length=64, default=lambda: uuid.uuid4(), notnull=True,writable=False, unique=True), \n    Field(\'media_view_results_key\', length=64, default=lambda: uuid.uuid4(), notnull=True,writable=False, unique=True),\n    Field(\'media_embed_key\', length=64, default=lambda: uuid.uuid4(), notnull=True,writable=False, unique=True),\n    Field(\'media_id\', requires=IS_NOT_EMPTY()),\n    Field(\'media_network\', requires=IS_IN_SET(("youtube", "vimeo", "annotatit"))), #maybe facebook will be nice to add, but later!!\n    Field(\'media_url\', requires=IS_URL()),\n    Field(\'privacy\', default=\'private\', requires=IS_IN_SET(("unlisted", "public", "private"))),\n    Field(\'annotation_permissions\', default=\'only_me\', requires=IS_IN_SET(("only_me", "authorized_groups", "authorized_people", "all"))), #TODO add a field that is "only people with the link"\n    Field(\'view_permissions\', default=\'only_me\', requires=IS_IN_SET(("only_me", "authorized_groups", "authorized_people", "all"))),#TODO add a field that is "only people with the link"\n    Field(\'creation_datetime\', \'datetime\',  default=datetime.now(), requires=IS_DATETIME()),\n    Field(\'update_datetime\', \'datetime\',  default=datetime.now(), requires=IS_DATETIME()),\n    )\n    \n##################\n####Annotations\n##################\n\n#######\n#Generic non synchronized nested comments, normal comments system\n#######\n#a comment that will be time tagged\ndb.define_table(\'comment\', \n    Field(\'owner_id\', \'reference auth_user\', default=auth.user_id, requires=IS_NOT_EMPTY()),\n    Field(\'media_id\', \'reference media\', requires=IS_NOT_EMPTY()),\n    Field(\'parent_id\', \'reference comment\'), #nested comments\n    Field(\'text\', \'text\', length=1024, requires=IS_NOT_EMPTY()),\n    Field(\'creation_datetime\', \'datetime\',  default=datetime.now(), requires=IS_DATETIME()),\n    Field(\'update_datetime\', \'datetime\',  default=datetime.now(), requires=IS_DATETIME()),\n    )\n\n########\n# Marked Synchronized Comments \n#\n# Allows to quickly mark a point in time to later come back and make a more thorough comment\n# Marks are shown as icons for easy interpretation\n########\ndb.define_table(\'flagged_comment\', \n    Field(\'owner_id\', \'reference auth_user\', default=auth.user_id, requires=IS_NOT_EMPTY()),\n    Field(\'media_id\', \'reference media\', requires=IS_NOT_EMPTY()),\n    Field(\'parent_id\', \'reference comment\', default=None), #nested comments\n    Field(\'media_time\', \'time\', requires=IS_TIME()), #automatically filled\n    #Field(\'mark\', requires=IS_IN_SET(("OK", "WARNING", "QUESTION"))),\n    Field(\'keyboard_shortcut\', \'string\', length=1),\n    Field(\'flag_name\',\'string\', length=30),\n    Field(\'flag_color\', \'string\', length=7 ), # \'#RRGGBB\'\n    Field(\'text\', \'text\', length=512, requires=IS_NOT_EMPTY()),\n    Field(\'creation_datetime\', \'datetime\',  default=datetime.now(), requires=IS_DATETIME()),\n    Field(\'update_datetime\', \'datetime\',  default=datetime.now(), requires=IS_DATETIME()),\n    )\n\n## Independent marks, as for giving a possibility to users\n# is what before was called TAG, but now I changed the name\ndb.define_table(\'flag\', \n    Field(\'owner_id\', \'reference auth_user\', default=auth.user_id, requires=IS_NOT_EMPTY()),\n    Field(\'media_id\', \'reference media\', requires=IS_NOT_EMPTY()),\n    Field(\'name\', \'string\'), #, requires=IS_IN_SET(("QUESTION", "OK", "WARNING","BAD")) ),\n    Field(\'media_time\', \'time\', requires=IS_TIME()), #this field should be automatically generated and filled\n    Field(\'creation_datetime\', \'datetime\',  default=datetime.now(), requires=IS_DATETIME()),\n    Field(\'update_datetime\', \'datetime\',  default=datetime.now(), requires=IS_DATETIME()),\n    )\n\n    \n##########\n#Tags:\n#\n# Tags are small words or sentences that refer to a comment, for suggesting\n# possible evaluation outcomes\n##########\n\ndb.define_table(\'text_tag\', \n    Field(\'owner_id\', \'reference auth_user\', default=auth.user_id, requires=IS_NOT_EMPTY()),\n    Field(\'parent_id\', \'reference comment\'), #nested comments\n    Field(\'text\', \'text\', length=50, requires=IS_NOT_EMPTY()),\n    Field(\'creation_datetime\', \'datetime\',  default=datetime.now(), requires=IS_DATETIME()),\n    Field(\'update_datetime\', \'datetime\',  default=datetime.now(), requires=IS_DATETIME()),\n    )\n\n#owner of media can suggest what tags to put\ndb.define_table(\'suggested_tag\', \n    Field(\'owner_id\', \'reference auth_user\', default=auth.user_id, requires=IS_NOT_EMPTY()),\n    Field(\'media_id\', \'reference media\'), #nested comments\n    Field(\'name\', \'text\', length=50, requires=IS_NOT_EMPTY()),\n    #Field(\'icon\',  ), #optional\n    Field(\'creation_datetime\', \'datetime\',  default=datetime.now(), requires=IS_DATETIME()),\n    Field(\'update_datetime\', \'datetime\',  default=datetime.now(), requires=IS_DATETIME()),\n    )\n\n\n######################\n# Sections \n# mark media sections\n######################\n\ndb.define_table(\'section\', \n    Field(\'owner_id\', \'reference auth_user\', default=auth.user_id, requires=IS_NOT_EMPTY()),\n    Field(\'media_id\', \'reference media\', requires=IS_NOT_EMPTY()),\n    Field(\'parent_id\', \'reference section\', default=None),\n    Field(\'name\', \'string\' ),\n    #Field(\'text\', \'string\' ),\n    Field(\'color\', \'string\', length=7 ), # \'#RRGGBB\'\n    Field(\'begin_time\', \'time\', requires=IS_TIME()), #auto filled\n    Field(\'end_time\', \'time\', requires=IS_TIME()), #auto filled\n    Field(\'creation_datetime\', \'datetime\',  default=datetime.now(), requires=IS_DATETIME()),\n    Field(\'update_datetime\', \'datetime\',  default=datetime.now(), requires=IS_DATETIME()),\n    )\n\n######################################################\n#### Contacts\n######################################################\n\n#########################################################################\n#Invites, modified from a post by massimo di piero in a post here:\n# http://www.mail-archive.com/web2py@googlegroups.com/msg78529.html\n\ndb.define_table(\'invite\',\n    Field(\'inviter_id\', \'reference auth_user\', default=auth.user_id, requires=IS_NOT_EMPTY()),\n    Field(\'email\', requires=IS_EMAIL() ),\n    Field(\'uuid\',default=str(uuid.uuid4())),\n    Field(\'accepted\', \'boolean\', default=False)\n    )\n#in case I want something more complicated\n#auth.settings.extra_fields[\'auth_user\']=Field(\'uuid\',requires=IS_IN_DB(db,db.invite.uuid)))\n#auth.settings.register_onaccept: lambda form: db(db.invite.uuid==form.vars.uuid).delete()\n#auth.define_tables()\n\ndb.define_table(\'contact\',\n    Field(\'source_id\', \'reference auth_user\', default=auth.user_id, requires=IS_NOT_EMPTY()),\n    Field(\'target_id\', \'reference auth_user\', requires=IS_NOT_EMPTY()),\n    )\n'
p7
sS'snapshot'
p8
(dp9
S'exception'
p10
(dp11
S'__hash__'
p12
S"<method-wrapper '__hash__' of exceptions.AttributeError object>"
p13
sS'__setattr__'
p14
S"<method-wrapper '__setattr__' of exceptions.AttributeError object>"
p15
sS'__reduce_ex__'
p16
S'<built-in method __reduce_ex__ of exceptions.AttributeError object>'
p17
sS'__getslice__'
p18
S"<method-wrapper '__getslice__' of exceptions.AttributeError object>"
p19
sS'__getitem__'
p20
S"<method-wrapper '__getitem__' of exceptions.AttributeError object>"
p21
sS'__setstate__'
p22
S'<built-in method __setstate__ of exceptions.AttributeError object>'
p23
sS'args'
p24
S'("\'NoneType\' object has no attribute \'first_name\'",)'
p25
sS'__reduce__'
p26
S'<built-in method __reduce__ of exceptions.AttributeError object>'
p27
sS'__str__'
p28
S"<method-wrapper '__str__' of exceptions.AttributeError object>"
p29
sS'__format__'
p30
S'<built-in method __format__ of exceptions.AttributeError object>'
p31
sS'__getattribute__'
p32
S"<method-wrapper '__getattribute__' of exceptions.AttributeError object>"
p33
sS'__class__'
p34
S"<type 'exceptions.AttributeError'>"
p35
sS'__unicode__'
p36
S'<built-in method __unicode__ of exceptions.AttributeError object>'
p37
sS'__delattr__'
p38
S"<method-wrapper '__delattr__' of exceptions.AttributeError object>"
p39
sS'__subclasshook__'
p40
S'<built-in method __subclasshook__ of type object>'
p41
sS'__repr__'
p42
S"<method-wrapper '__repr__' of exceptions.AttributeError object>"
p43
sS'__dict__'
p44
S'{}'
p45
sS'__sizeof__'
p46
S'<built-in method __sizeof__ of exceptions.AttributeError object>'
p47
sS'__doc__'
p48
S"'Attribute not found.'"
p49
sS'__init__'
p50
S"<method-wrapper '__init__' of exceptions.AttributeError object>"
p51
sS'__new__'
p52
S'<built-in method __new__ of type object>'
p53
ssS'evalue'
p54
S"'NoneType' object has no attribute 'first_name'"
p55
sS'request'
p56
cgluon.html
XML_unpickle
p57
(S's\x8bC\x00\x00<div><table><tr><td style="font-weight:bold;vertical-align:top">ajax</td><td valign="top">:</td><td><div>False</div></td></tr><tr><td style="font-weight:bold;vertical-align:top">application</td><td valign="top">:</td><td><div>AnnotatIt</div></td></tr><tr><td style="font-weight:bold;vertical-align:top">args</td><td valign="top">:</td><td><div><table></table></div></td></tr><tr><td style="font-weight:bold;vertical-align:top">body</td><td valign="top">:</td><td><div>&lt;cStringIO.StringO object at 0x285f298&gt;</div></td></tr><tr><td style="font-weight:bold;vertical-align:top">cid</td><td valign="top">:</td><td><div>None</div></td></tr><tr><td style="font-weight:bold;vertical-align:top">client</td><td valign="top">:</td><td><div>127.0.0.1</div></td></tr><tr><td style="font-weight:bold;vertical-align:top">controller</td><td valign="top">:</td><td><div>default</div></td></tr><tr><td style="font-weight:bold;vertical-align:top">cookies</td><td valign="top">:</td><td><div><table><tr><td style="font-weight:bold;vertical-align:top">session_id_admin</td><td valign="top">:</td><td><div>127.0.0.1-6e5c7518-eb45-464f-861e-8db7718a71fa<table><tr><td style="font-weight:bold;vertical-align:top">comment</td><td valign="top">:</td><td><div></div></td></tr><tr><td style="font-weight:bold;vertical-align:top">domain</td><td valign="top">:</td><td><div></div></td></tr><tr><td style="font-weight:bold;vertical-align:top">expires</td><td valign="top">:</td><td><div></div></td></tr><tr><td style="font-weight:bold;vertical-align:top">httponly</td><td valign="top">:</td><td><div></div></td></tr><tr><td style="font-weight:bold;vertical-align:top">max-age</td><td valign="top">:</td><td><div></div></td></tr><tr><td style="font-weight:bold;vertical-align:top">path</td><td valign="top">:</td><td><div></div></td></tr><tr><td style="font-weight:bold;vertical-align:top">secure</td><td valign="top">:</td><td><div></div></td></tr><tr><td style="font-weight:bold;vertical-align:top">version</td><td valign="top">:</td><td><div></div></td></tr></table></div></td></tr><tr><td style="font-weight:bold;vertical-align:top">session_id_annotatit</td><td valign="top">:</td><td><div>127.0.0.1-27dfc840-f8a0-43d1-a4a0-57dfcca45aed<table><tr><td style="font-weight:bold;vertical-align:top">comment</td><td valign="top">:</td><td><div></div></td></tr><tr><td style="font-weight:bold;vertical-align:top">domain</td><td valign="top">:</td><td><div></div></td></tr><tr><td style="font-weight:bold;vertical-align:top">expires</td><td valign="top">:</td><td><div></div></td></tr><tr><td style="font-weight:bold;vertical-align:top">httponly</td><td valign="top">:</td><td><div></div></td></tr><tr><td style="font-weight:bold;vertical-align:top">max-age</td><td valign="top">:</td><td><div></div></td></tr><tr><td style="font-weight:bold;vertical-align:top">path</td><td valign="top">:</td><td><div></div></td></tr><tr><td style="font-weight:bold;vertical-align:top">secure</td><td valign="top">:</td><td><div></div></td></tr><tr><td style="font-weight:bold;vertical-align:top">version</td><td valign="top">:</td><td><div></div></td></tr></table></div></td></tr></table></div></td></tr><tr><td style="font-weight:bold;vertical-align:top">env</td><td valign="top">:</td><td><div><table><tr><td style="font-weight:bold;vertical-align:top">app_folders</td><td valign="top">:</td><td><div>set([&#x27;/home/leo/projects/AnnotatIt/annotatit-beta/heroku/annotatit-beta/applications/AnnotatIt/&#x27;])</div></td></tr><tr><td style="font-weight:bold;vertical-align:top">applications_parent</td><td valign="top">:</td><td><div>/home/leo/projects/AnnotatIt/annotatit-beta/heroku/annotatit-beta</div></td></tr><tr><td style="font-weight:bold;vertical-align:top">db_sessions</td><td valign="top">:</td><td><div>set([])</div></td></tr><tr><td style="font-weight:bold;vertical-align:top">debugging</td><td valign="top">:</td><td><div>False</div></td></tr><tr><td style="font-weight:bold;vertical-align:top">gluon_parent</td><td valign="top">:</td><td><div>/home/leo/projects/AnnotatIt/annotatit-beta/heroku/annotatit-beta</div></td></tr><tr><td style="font-weight:bold;vertical-align:top">gunicorn_socket</td><td valign="top">:</td><td><div>&lt;socket._socketobject object at 0x277efa0&gt;</div></td></tr><tr><td style="font-weight:bold;vertical-align:top">http_accept</td><td valign="top">:</td><td><div>text/html,application/xhtml+xml,application/xml;q=0.9,*/*;q=0.8</div></td></tr><tr><td style="font-weight:bold;vertical-align:top">http_accept_encoding</td><td valign="top">:</td><td><div>gzip,deflate,sdch</div></td></tr><tr><td style="font-weight:bold;vertical-align:top">http_accept_language</td><td valign="top">:</td><td><div>en-US,en;q=0.8,fr;q=0.6,es;q=0.4</div></td></tr><tr><td style="font-weight:bold;vertical-align:top">http_cache_control</td><td valign="top">:</td><td><div>max-age=0</div></td></tr><tr><td style="font-weight:bold;vertical-align:top">http_connection</td><td valign="top">:</td><td><div>keep-alive</div></td></tr><tr><td style="font-weight:bold;vertical-align:top">http_cookie</td><td valign="top">:</td><td><div>session_id_admin=127.0.0.1-6e5c7518-eb45-464f-861e-8db7718a71fa; session_id_annotatit=127.0.0.1-27dfc840-f8a0-43d1-a4a0-57dfcca45aed</div></td></tr><tr><td style="font-weight:bold;vertical-align:top">http_host</td><td valign="top">:</td><td><div>127.0.0.1:5000</div></td></tr><tr><td style="font-weight:bold;vertical-align:top">http_user_agent</td><td valign="top">:</td><td><div>Mozilla/5.0 (X11; Linux x86_64) AppleWebKit/537.36 (KHTML, like Gecko) Chrome/28.0.1500.63 Safari/537.36</div></td></tr><tr><td style="font-weight:bold;vertical-align:top">is_jython</td><td valign="top">:</td><td><div>False</div></td></tr><tr><td style="font-weight:bold;vertical-align:top">is_pypy</td><td valign="top">:</td><td><div>False</div></td></tr><tr><td style="font-weight:bold;vertical-align:top">path_info</td><td valign="top">:</td><td><div>/</div></td></tr><tr><td style="font-weight:bold;vertical-align:top">query_string</td><td valign="top">:</td><td><div></div></td></tr><tr><td style="font-weight:bold;vertical-align:top">raw_uri</td><td valign="top">:</td><td><div>/</div></td></tr><tr><td style="font-weight:bold;vertical-align:top">remote_addr</td><td valign="top">:</td><td><div>127.0.0.1</div></td></tr><tr><td style="font-weight:bold;vertical-align:top">remote_port</td><td valign="top">:</td><td><div>44459</div></td></tr><tr><td style="font-weight:bold;vertical-align:top">request_method</td><td valign="top">:</td><td><div>GET</div></td></tr><tr><td style="font-weight:bold;vertical-align:top">request_uri</td><td valign="top">:</td><td><div>/AnnotatIt/default/index</div></td></tr><tr><td style="font-weight:bold;vertical-align:top">script_name</td><td valign="top">:</td><td><div></div></td></tr><tr><td style="font-weight:bold;vertical-align:top">server_name</td><td valign="top">:</td><td><div>127.0.0.1</div></td></tr><tr><td style="font-weight:bold;vertical-align:top">server_port</td><td valign="top">:</td><td><div>5000</div></td></tr><tr><td style="font-weight:bold;vertical-align:top">server_protocol</td><td valign="top">:</td><td><div>HTTP/1.1</div></td></tr><tr><td style="font-weight:bold;vertical-align:top">server_software</td><td valign="top">:</td><td><div>gunicorn/0.17.2</div></td></tr><tr><td style="font-weight:bold;vertical-align:top">web2py_crontype</td><td valign="top">:</td><td><div>soft</div></td></tr><tr><td style="font-weight:bold;vertical-align:top">web2py_original_uri</td><td valign="top">:</td><td><div>/</div></td></tr><tr><td style="font-weight:bold;vertical-align:top">web2py_path</td><td valign="top">:</td><td><div>/home/leo/projects/AnnotatIt/annotatit-beta/heroku/annotatit-beta</div></td></tr><tr><td style="font-weight:bold;vertical-align:top">web2py_version</td><td valign="top">:</td><td><div>2.5.1-stable+timestamp.2013.06.06.15.39.19</div></td></tr><tr><td style="font-weight:bold;vertical-align:top">wsgi_errors</td><td valign="top">:</td><td><div>&lt;open file &#x27;&lt;stderr&gt;&#x27;, mode &#x27;w&#x27; at 0x7f8acd2e2270&gt;</div></td></tr><tr><td style="font-weight:bold;vertical-align:top">wsgi_file_wrapper</td><td valign="top">:</td><td><div>&lt;class gunicorn.http.wsgi.FileWrapper at 0x27b8808&gt;</div></td></tr><tr><td style="font-weight:bold;vertical-align:top">wsgi_input</td><td valign="top">:</td><td><div>&lt;gunicorn.http.body.Body object at 0x284c610&gt;</div></td></tr><tr><td style="font-weight:bold;vertical-align:top">wsgi_multiprocess</td><td valign="top">:</td><td><div>False</div></td></tr><tr><td style="font-weight:bold;vertical-align:top">wsgi_multithread</td><td valign="top">:</td><td><div>False</div></td></tr><tr><td style="font-weight:bold;vertical-align:top">wsgi_run_once</td><td valign="top">:</td><td><div>False</div></td></tr><tr><td style="font-weight:bold;vertical-align:top">wsgi_url_scheme</td><td valign="top">:</td><td><div>http</div></td></tr><tr><td style="font-weight:bold;vertical-align:top">wsgi_version</td><td valign="top">:</td><td><div><table><tr><td><div>1</div></td></tr><tr><td><div>0</div></td></tr></table></div></td></tr></table></div></td></tr><tr><td style="font-weight:bold;vertical-align:top">extension</td><td valign="top">:</td><td><div>html</div></td></tr><tr><td style="font-weight:bold;vertical-align:top">folder</td><td valign="top">:</td><td><div>/home/leo/projects/AnnotatIt/annotatit-beta/heroku/annotatit-beta/applications/AnnotatIt/</div></td></tr><tr><td style="font-weight:bold;vertical-align:top">function</td><td valign="top">:</td><td><div>index</div></td></tr><tr><td style="font-weight:bold;vertical-align:top">get_vars</td><td valign="top">:</td><td><div><table></table></div></td></tr><tr><td style="font-weight:bold;vertical-align:top">global_settings</td><td valign="top">:</td><td><div><table><tr><td style="font-weight:bold;vertical-align:top">app_folders</td><td valign="top">:</td><td><div>set([&#x27;/home/leo/projects/AnnotatIt/annotatit-beta/heroku/annotatit-beta/applications/AnnotatIt/&#x27;])</div></td></tr><tr><td style="font-weight:bold;vertical-align:top">applications_parent</td><td valign="top">:</td><td><div>/home/leo/projects/AnnotatIt/annotatit-beta/heroku/annotatit-beta</div></td></tr><tr><td style="font-weight:bold;vertical-align:top">db_sessions</td><td valign="top">:</td><td><div>set([])</div></td></tr><tr><td style="font-weight:bold;vertical-align:top">debugging</td><td valign="top">:</td><td><div>False</div></td></tr><tr><td style="font-weight:bold;vertical-align:top">gluon_parent</td><td valign="top">:</td><td><div>/home/leo/projects/AnnotatIt/annotatit-beta/heroku/annotatit-beta</div></td></tr><tr><td style="font-weight:bold;vertical-align:top">is_jython</td><td valign="top">:</td><td><div>False</div></td></tr><tr><td style="font-weight:bold;vertical-align:top">is_pypy</td><td valign="top">:</td><td><div>False</div></td></tr><tr><td style="font-weight:bold;vertical-align:top">local_hosts</td><td valign="top">:</td><td><div><table><tr><td><div>cotita</div></td></tr><tr><td><div>::1</div></td></tr><tr><td><div>127.0.1.1</div></td></tr><tr><td><div>::ffff:127.0.0.1</div></td></tr><tr><td><div>127.0.0.1</div></td></tr></table></div></td></tr><tr><td style="font-weight:bold;vertical-align:top">web2py_crontype</td><td valign="top">:</td><td><div>soft</div></td></tr><tr><td style="font-weight:bold;vertical-align:top">web2py_version</td><td valign="top">:</td><td><div>2.5.1-stable+timestamp.2013.06.06.15.39.19</div></td></tr></table></div></td></tr><tr><td style="font-weight:bold;vertical-align:top">is_https</td><td valign="top">:</td><td><div>False</div></td></tr><tr><td style="font-weight:bold;vertical-align:top">is_local</td><td valign="top">:</td><td><div>True</div></td></tr><tr><td style="font-weight:bold;vertical-align:top">is_restful</td><td valign="top">:</td><td><div>False</div></td></tr><tr><td style="font-weight:bold;vertical-align:top">now</td><td valign="top">:</td><td><div>datetime.datetime(2013, 7, 18, 10, 33, 7, 62620)</div></td></tr><tr><td style="font-weight:bold;vertical-align:top">post_vars</td><td valign="top">:</td><td><div><table></table></div></td></tr><tr><td style="font-weight:bold;vertical-align:top">url</td><td valign="top">:</td><td><div>/</div></td></tr><tr><td style="font-weight:bold;vertical-align:top">utcnow</td><td valign="top">:</td><td><div>datetime.datetime(2013, 7, 18, 8, 33, 7, 62643)</div></td></tr><tr><td style="font-weight:bold;vertical-align:top">uuid</td><td valign="top">:</td><td><div>AnnotatIt/127.0.0.1.2013-07-18.10-33-07.a005b2e2-6b47-4d59-8c77-ff129e1e6d46</div></td></tr><tr><td style="font-weight:bold;vertical-align:top">vars</td><td valign="top">:</td><td><div><table></table></div></td></tr><tr><td style="font-weight:bold;vertical-align:top">wsgi</td><td valign="top">:</td><td><div><table><tr><td style="font-weight:bold;vertical-align:top">environ</td><td valign="top">:</td><td><div><table><tr><td style="font-weight:bold;vertical-align:top">HTTP_ACCEPT</td><td valign="top">:</td><td><div>text/html,application/xhtml+xml,application/xml;q=0.9,*/*;q=0.8</div></td></tr><tr><td style="font-weight:bold;vertical-align:top">HTTP_ACCEPT_ENCODING</td><td valign="top">:</td><td><div>gzip,deflate,sdch</div></td></tr><tr><td style="font-weight:bold;vertical-align:top">HTTP_ACCEPT_LANGUAGE</td><td valign="top">:</td><td><div>en-US,en;q=0.8,fr;q=0.6,es;q=0.4</div></td></tr><tr><td style="font-weight:bold;vertical-align:top">HTTP_CACHE_CONTROL</td><td valign="top">:</td><td><div>max-age=0</div></td></tr><tr><td style="font-weight:bold;vertical-align:top">HTTP_CONNECTION</td><td valign="top">:</td><td><div>keep-alive</div></td></tr><tr><td style="font-weight:bold;vertical-align:top">HTTP_COOKIE</td><td valign="top">:</td><td><div>session_id_admin=127.0.0.1-6e5c7518-eb45-464f-861e-8db7718a71fa; session_id_annotatit=127.0.0.1-27dfc840-f8a0-43d1-a4a0-57dfcca45aed</div></td></tr><tr><td style="font-weight:bold;vertical-align:top">HTTP_HOST</td><td valign="top">:</td><td><div>127.0.0.1:5000</div></td></tr><tr><td style="font-weight:bold;vertical-align:top">HTTP_USER_AGENT</td><td valign="top">:</td><td><div>Mozilla/5.0 (X11; Linux x86_64) AppleWebKit/537.36 (KHTML, like Gecko) Chrome/28.0.1500.63 Safari/537.36</div></td></tr><tr><td style="font-weight:bold;vertical-align:top">PATH_INFO</td><td valign="top">:</td><td><div>/</div></td></tr><tr><td style="font-weight:bold;vertical-align:top">QUERY_STRING</td><td valign="top">:</td><td><div></div></td></tr><tr><td style="font-weight:bold;vertical-align:top">RAW_URI</td><td valign="top">:</td><td><div>/</div></td></tr><tr><td style="font-weight:bold;vertical-align:top">REMOTE_ADDR</td><td valign="top">:</td><td><div>127.0.0.1</div></td></tr><tr><td style="font-weight:bold;vertical-align:top">REMOTE_PORT</td><td valign="top">:</td><td><div>44459</div></td></tr><tr><td style="font-weight:bold;vertical-align:top">REQUEST_METHOD</td><td valign="top">:</td><td><div>GET</div></td></tr><tr><td style="font-weight:bold;vertical-align:top">REQUEST_URI</td><td valign="top">:</td><td><div>/AnnotatIt/default/index</div></td></tr><tr><td style="font-weight:bold;vertical-align:top">SCRIPT_NAME</td><td valign="top">:</td><td><div></div></td></tr><tr><td style="font-weight:bold;vertical-align:top">SERVER_NAME</td><td valign="top">:</td><td><div>127.0.0.1</div></td></tr><tr><td style="font-weight:bold;vertical-align:top">SERVER_PORT</td><td valign="top">:</td><td><div>5000</div></td></tr><tr><td style="font-weight:bold;vertical-align:top">SERVER_PROTOCOL</td><td valign="top">:</td><td><div>HTTP/1.1</div></td></tr><tr><td style="font-weight:bold;vertical-align:top">SERVER_SOFTWARE</td><td valign="top">:</td><td><div>gunicorn/0.17.2</div></td></tr><tr><td style="font-weight:bold;vertical-align:top">WEB2PY_ORIGINAL_URI</td><td valign="top">:</td><td><div>/</div></td></tr><tr><td style="font-weight:bold;vertical-align:top">gunicorn.socket</td><td valign="top">:</td><td><div>&lt;socket._socketobject object at 0x277efa0&gt;</div></td></tr><tr><td style="font-weight:bold;vertical-align:top">wsgi.errors</td><td valign="top">:</td><td><div>&lt;open file &#x27;&lt;stderr&gt;&#x27;, mode &#x27;w&#x27; at 0x7f8acd2e2270&gt;</div></td></tr><tr><td style="font-weight:bold;vertical-align:top">wsgi.file_wrapper</td><td valign="top">:</td><td><div>&lt;class gunicorn.http.wsgi.FileWrapper at 0x27b8808&gt;</div></td></tr><tr><td style="font-weight:bold;vertical-align:top">wsgi.input</td><td valign="top">:</td><td><div>&lt;cStringIO.StringO object at 0x285f298&gt;</div></td></tr><tr><td style="font-weight:bold;vertical-align:top">wsgi.multiprocess</td><td valign="top">:</td><td><div>False</div></td></tr><tr><td style="font-weight:bold;vertical-align:top">wsgi.multithread</td><td valign="top">:</td><td><div>False</div></td></tr><tr><td style="font-weight:bold;vertical-align:top">wsgi.run_once</td><td valign="top">:</td><td><div>False</div></td></tr><tr><td style="font-weight:bold;vertical-align:top">wsgi.url_scheme</td><td valign="top">:</td><td><div>http</div></td></tr><tr><td style="font-weight:bold;vertical-align:top">wsgi.version</td><td valign="top">:</td><td><div>1</div></td></tr></table></div></td></tr></table></div></td></tr></table></div>'
tRp58
sS'frames'
p59
(lp60
(dp61
S'file'
p62
S'/home/leo/projects/AnnotatIt/annotatit-beta/heroku/annotatit-beta/gluon/restricted.py'
p63
sS'dump'
p64
(dp65
S'environment'
p66
S"{'A': <class 'gluon.html.A'>, 'ANY_OF': <class 'gluon.validators.ANY_OF'>, 'APP_DOMAIN_NAME': 'AnnotatIt.com', 'APP_DOMAIN_NAME_2': 'Annotat.It', 'APP_NAME': 'AnnotatIt', 'Auth': <class 'gluon.tools.Auth'>, 'B': <class 'gluon.html.B'>, 'BEAUTIFY': <class 'gluon.html.BEAUTIFY'>, 'BODY': <class 'gluon.html.BODY'>, 'BR': <class 'gluon.html.BR'>, ...}"
p67
sS'ccode'
p68
S'<code object <module> at 0x2889f30, file "/home/...ta/applications/AnnotatIt/models/db.py", line 12>'
p69
ssS'lnum'
p70
I212
sS'lines'
p71
(dp72
I207
S'    try:'
p73
sI208
S'        if isinstance(code, types.CodeType):'
p74
sI209
S'            ccode = code'
p75
sI210
S'        else:'
p76
sI211
S'            ccode = compile2(code, layer)'
p77
sI212
S'        exec ccode in environment'
p78
sI213
S'    except HTTP:'
p79
sI214
S'        raise'
p80
sI215
S'    except RestrictedError:'
p81
sI216
S'        # do not encapsulate (obfuscate) the original RestrictedError'
p82
ssS'call'
p83
S'(code="# -*- coding: utf-8 -*-\\n\\n#######################...ence auth_user\', requires=IS_NOT_EMPTY()),\\n    )\\n", environment={\'A\': <class \'gluon.html.A\'>, \'ANY_OF\': <class \'gluon.validators.ANY_OF\'>, \'APP_DOMAIN_NAME\': \'AnnotatIt.com\', \'APP_DOMAIN_NAME_2\': \'Annotat.It\', \'APP_NAME\': \'AnnotatIt\', \'Auth\': <class \'gluon.tools.Auth\'>, \'B\': <class \'gluon.html.B\'>, \'BEAUTIFY\': <class \'gluon.html.BEAUTIFY\'>, \'BODY\': <class \'gluon.html.BODY\'>, \'BR\': <class \'gluon.html.BR\'>, ...}, layer=\'/home/leo/projects/AnnotatIt/annotatit-beta/hero...nnotatit-beta/applications/AnnotatIt/models/db.py\')'
p84
sS'func'
p85
S'restricted'
p86
sa(dp87
g62
S'/home/leo/projects/AnnotatIt/annotatit-beta/heroku/annotatit-beta/applications/AnnotatIt/models/db.py'
p88
sg64
(dp89
S'auth.user.first_name'
p90
S'undefined'
p91
sS'IS_NOT_EMPTY'
p92
S"<class 'gluon.validators.IS_NOT_EMPTY'>"
p93
sS'default'
p94
g91
sS'auth'
p95
S'<gluon.tools.Auth object>'
p96
sS'Field'
p97
S"<class 'gluon.dal.Field'>"
p98
sS'length'
p99
g91
sS'auth.user'
p100
S'None'
p101
sS'requires'
p102
g91
ssg70
I63
sg71
(dp103
I64
S"    Field('image', 'upload', uploadfield='image_file'),"
p104
sI65
S"    Field('image_file', 'blob'))"
p105
sI66
S''
sI67
S'################'
p106
sI58
S'# auth.enable_record_versioning(db)'
p107
sI59
S''
sI60
S'#for user information'
p108
sI61
S"db.define_table('user_info',"
p109
sI62
S"    Field('user_id', 'reference auth_user', default=auth.user_id, requires=IS_NOT_EMPTY()),"
p110
sI63
S"    Field('nickname', length=50, default=auth.user.first_name, requires=IS_NOT_EMPTY()),"
p111
ssg83
S'()'
p112
sg85
S'<module>'
p113
sasS'pyver'
p114
S'Python 2.7.3: /home/leo/projects/AnnotatIt/annotatit-beta/heroku/annotatit-beta/venv/bin/python (prefix: /home/leo/projects/AnnotatIt/annotatit-beta/heroku/annotatit-beta/venv)'
p115
sS'session'
p116
g57
(S's\x1a\x00\x00\x00<div><table></table></div>'
tRp117
sS'etype'
p118
S"<type 'exceptions.AttributeError'>"
p119
sS'date'
p120
S'Thu Jul 18 10:33:07 2013'
p121
sS'response'
p122
g57
(S's\xed\x10\x00\x00<div><table><tr><td style="font-weight:bold;vertical-align:top">body</td><td valign="top">:</td><td><div>&lt;cStringIO.StringO object at 0x27e9b20&gt;</div></td></tr><tr><td style="font-weight:bold;vertical-align:top">cookies</td><td valign="top">:</td><td><div><table><tr><td style="font-weight:bold;vertical-align:top">session_id_annotatit</td><td valign="top">:</td><td><div>127.0.0.1-27dfc840-f8a0-43d1-a4a0-57dfcca45aed<table><tr><td style="font-weight:bold;vertical-align:top">comment</td><td valign="top">:</td><td><div></div></td></tr><tr><td style="font-weight:bold;vertical-align:top">domain</td><td valign="top">:</td><td><div></div></td></tr><tr><td style="font-weight:bold;vertical-align:top">expires</td><td valign="top">:</td><td><div></div></td></tr><tr><td style="font-weight:bold;vertical-align:top">httponly</td><td valign="top">:</td><td><div></div></td></tr><tr><td style="font-weight:bold;vertical-align:top">max-age</td><td valign="top">:</td><td><div></div></td></tr><tr><td style="font-weight:bold;vertical-align:top">path</td><td valign="top">:</td><td><div>/</div></td></tr><tr><td style="font-weight:bold;vertical-align:top">secure</td><td valign="top">:</td><td><div></div></td></tr><tr><td style="font-weight:bold;vertical-align:top">version</td><td valign="top">:</td><td><div></div></td></tr></table></div></td></tr></table></div></td></tr><tr><td style="font-weight:bold;vertical-align:top">delimiters</td><td valign="top">:</td><td><div><table><tr><td><div>{{</div></td></tr><tr><td><div>}}</div></td></tr></table></div></td></tr><tr><td style="font-weight:bold;vertical-align:top">files</td><td valign="top">:</td><td><div><table></table></div></td></tr><tr><td style="font-weight:bold;vertical-align:top">flash</td><td valign="top">:</td><td><div></div></td></tr><tr><td style="font-weight:bold;vertical-align:top">generic_patterns</td><td valign="top">:</td><td><div><table><tr><td><div>*</div></td></tr></table></div></td></tr><tr><td style="font-weight:bold;vertical-align:top">headers</td><td valign="top">:</td><td><div><table><tr><td style="font-weight:bold;vertical-align:top">X-Powered-By</td><td valign="top">:</td><td><div>web2py</div></td></tr></table></div></td></tr><tr><td style="font-weight:bold;vertical-align:top">menu</td><td valign="top">:</td><td><div><table></table></div></td></tr><tr><td style="font-weight:bold;vertical-align:top">meta</td><td valign="top">:</td><td><div><table></table></div></td></tr><tr><td style="font-weight:bold;vertical-align:top">models_to_run</td><td valign="top">:</td><td><div><table><tr><td><div>^\\w+\\.py$</div></td></tr><tr><td><div>^default/\\w+\\.py$</div></td></tr><tr><td><div>^default/index/\\w+\\.py$</div></td></tr></table></div></td></tr><tr><td style="font-weight:bold;vertical-align:top">postprocessing</td><td valign="top">:</td><td><div><table></table></div></td></tr><tr><td style="font-weight:bold;vertical-align:top">session_cookie_expires</td><td valign="top">:</td><td><div>None</div></td></tr><tr><td style="font-weight:bold;vertical-align:top">session_data_name</td><td valign="top">:</td><td><div>session_data_annotatit</div></td></tr><tr><td style="font-weight:bold;vertical-align:top">session_file</td><td valign="top">:</td><td><div>None</div></td></tr><tr><td style="font-weight:bold;vertical-align:top">session_filename</td><td valign="top">:</td><td><div>/home/leo/projects/AnnotatIt/annotatit-beta/heroku/annotatit-beta/applications/AnnotatIt/sessions/127.0.0.1-27dfc840-f8a0-43d1-a4a0-57dfcca45aed</div></td></tr><tr><td style="font-weight:bold;vertical-align:top">session_id</td><td valign="top">:</td><td><div>127.0.0.1-27dfc840-f8a0-43d1-a4a0-57dfcca45aed</div></td></tr><tr><td style="font-weight:bold;vertical-align:top">session_id_name</td><td valign="top">:</td><td><div>session_id_annotatit</div></td></tr><tr><td style="font-weight:bold;vertical-align:top">session_new</td><td valign="top">:</td><td><div>False</div></td></tr><tr><td style="font-weight:bold;vertical-align:top">session_storage_type</td><td valign="top">:</td><td><div>file</div></td></tr><tr><td style="font-weight:bold;vertical-align:top">status</td><td valign="top">:</td><td><div>200</div></td></tr><tr><td style="font-weight:bold;vertical-align:top">view</td><td valign="top">:</td><td><div>default/index.html</div></td></tr></table></div>'
tRp123
sS'locals'
p124
(dp125
S'Service'
p126
S"<class 'gluon.tools.Service'>"
p127
sS'OBJECT'
p128
S"<class 'gluon.html.OBJECT'>"
p129
sS'SQLDB'
p130
S"<class 'gluon.dal.DAL'>"
p131
sg116
S'<Storage {}>'
p132
sS'LINK'
p133
S"<class 'gluon.html.LINK'>"
p134
sS'BR'
p135
S"<class 'gluon.html.BR'>"
p136
sS'local_import'
p137
S'<function <lambda>>'
p138
sS'APP_DOMAIN_NAME_2'
p139
S"'Annotat.It'"
p140
sS'LI'
p141
S"<class 'gluon.html.LI'>"
p142
sS'PRE'
p143
S"<class 'gluon.html.PRE'>"
p144
sS'IS_INT_IN_RANGE'
p145
S"<class 'gluon.validators.IS_INT_IN_RANGE'>"
p146
sS'uuid'
p147
S"<module 'uuid' from '/usr/lib/python2.7/uuid.pyc'>"
p148
sS'IS_LOWER'
p149
S"<class 'gluon.validators.IS_LOWER'>"
p150
sS'IS_STRONG'
p151
S"<class 'gluon.validators.IS_STRONG'>"
p152
sS'cache'
p153
S'<gluon.cache.Cache object>'
p154
sS'IS_IN_DB'
p155
S"<class 'gluon.validators.IS_IN_DB'>"
p156
sS'TAG'
p157
S'<gluon.html.__TAG__ object>'
p158
sS'SQLField'
p159
S"<class 'gluon.dal.Field'>"
p160
sS'mail'
p161
S'<gluon.tools.Mail object>'
p162
sS'BODY'
p163
S"<class 'gluon.html.BODY'>"
p164
sS'IS_DATE_IN_RANGE'
p165
S"<class 'gluon.validators.IS_DATE_IN_RANGE'>"
p166
sS'TH'
p167
S"<class 'gluon.html.TH'>"
p168
sS'URL'
p169
S'<function URL>'
p170
sS'__file__'
p171
S"'/home/leo/projects/AnnotatIt/annotatit-beta/hero...nnotatit-beta/applications/AnnotatIt/models/db.py'"
p172
sS'db'
p173
S'<DAL uri="sqlite://heroku.test.sqlite">'
p174
sS'auth'
p175
S'<gluon.tools.Auth object>'
p176
sS'P'
S"<class 'gluon.html.P'>"
p177
sS'TFOOT'
p178
S"<class 'gluon.html.TFOOT'>"
p179
sS'XHTML'
p180
S"<class 'gluon.html.XHTML'>"
p181
sS'datetime'
p182
S"<type 'datetime.datetime'>"
p183
sS'ON'
p184
S'True'
p185
sS'OL'
p186
S"<class 'gluon.html.OL'>"
p187
sS'TEXTAREA'
p188
S"<class 'gluon.html.TEXTAREA'>"
p189
sS'WEBMASTERS_EMAIL_DOMAIN_2'
p190
S"'annotat.it'"
p191
sS'MENU'
p192
S"<class 'gluon.html.MENU'>"
p193
sS'LOAD'
p194
S'<function LOAD>'
p195
sS'CODE'
p196
S"<class 'gluon.html.CODE'>"
p197
sS'HTTP'
p198
S"<class 'gluon.http.HTTP'>"
p199
sS'HR'
p200
S"<class 'gluon.html.HR'>"
p201
sS'IS_DATETIME'
p202
S"<class 'gluon.validators.IS_DATETIME'>"
p203
sS'HEAD'
p204
S"<class 'gluon.html.HEAD'>"
p205
sS'LABEL'
p206
S"<class 'gluon.html.LABEL'>"
p207
sS'OPTGROUP'
p208
S"<class 'gluon.html.OPTGROUP'>"
p209
sS'CLEANUP'
p210
S"<class 'gluon.validators.CLEANUP'>"
p211
sS'plugins'
p212
S'<gluon.tools.PluginManager object>'
p213
sS'SELECT'
p214
S"<class 'gluon.html.SELECT'>"
p215
sS'CENTER'
p216
S"<class 'gluon.html.CENTER'>"
p217
sS'prettydate'
p218
S'<function prettydate>'
p219
sS'Crud'
p220
S"<class 'gluon.tools.Crud'>"
p221
sS'Auth'
p222
S"<class 'gluon.tools.Auth'>"
p223
sS'__builtins__'
p224
S"{'ArithmeticError': <type 'exceptions.ArithmeticError'>, 'AssertionError': <type 'exceptions.AssertionError'>, 'AttributeError': <type 'exceptions.AttributeError'>, 'BaseException': <type 'exceptions.BaseException'>, 'BufferError': <type 'exceptions.BufferError'>, 'BytesWarning': <type 'exceptions.BytesWarning'>, 'DeprecationWarning': <type 'exceptions.DeprecationWarning'>, 'EOFError': <type 'exceptions.EOFError'>, 'Ellipsis': Ellipsis, 'EnvironmentError': <type 'exceptions.EnvironmentError'>, ...}"
p225
sS'HTML'
p226
S"<class 'gluon.html.HTML'>"
p227
sS'SQLFORM'
p228
S"<class 'gluon.sqlhtml.SQLFORM'>"
p229
sS'EM'
p230
S"<class 'gluon.html.EM'>"
p231
sS'redirect'
p232
S'<function redirect>'
p233
sS'FIELDSET'
p234
S"<class 'gluon.html.FIELDSET'>"
p235
sS'IS_EQUAL_TO'
p236
S"<class 'gluon.validators.IS_EQUAL_TO'>"
p237
sS'embed64'
p238
S'<function embed64>'
p239
sS'IS_LIST_OF'
p240
S"<class 'gluon.validators.IS_LIST_OF'>"
p241
sS'__name__'
p242
S"'__restricted__'"
p243
sS'EMBED'
p244
S"<class 'gluon.html.EMBED'>"
p245
sS'APP_DOMAIN_NAME'
p246
S"'AnnotatIt.com'"
p247
sS'FORM'
p248
S"<class 'gluon.html.FORM'>"
p249
sS'H2'
p250
S"<class 'gluon.html.H2'>"
p251
sS'H3'
p252
S"<class 'gluon.html.H3'>"
p253
sS'BUTTON'
p254
S"<class 'gluon.html.BUTTON'>"
p255
sS'H1'
p256
S"<class 'gluon.html.H1'>"
p257
sS'H6'
p258
S"<class 'gluon.html.H6'>"
p259
sS'H4'
p260
S"<class 'gluon.html.H4'>"
p261
sS'H5'
p262
S"<class 'gluon.html.H5'>"
p263
sS'UL'
p264
S"<class 'gluon.html.UL'>"
p265
sS'get_db'
p266
S'<function get_db>'
p267
sS'IS_UPPER'
p268
S"<class 'gluon.validators.IS_UPPER'>"
p269
sS'xmlescape'
p270
S'<function xmlescape>'
p271
sS'IS_TIME'
p272
S"<class 'gluon.validators.IS_TIME'>"
p273
sS'OPTION'
p274
S"<class 'gluon.html.OPTION'>"
p275
sS'WEBMASTERS_EMAIL'
p276
S"'leo@annotatit.com'"
p277
sS'TITLE'
p278
S"<class 'gluon.html.TITLE'>"
p279
sS'CRYPT'
p280
S"<class 'gluon.validators.CRYPT'>"
p281
sS'IS_EMPTY_OR'
p282
S"<class 'gluon.validators.IS_EMPTY_OR'>"
p283
sS'MARKMIN'
p284
S"<class 'gluon.html.MARKMIN'>"
p285
sS'INPUT'
p286
S"<class 'gluon.html.INPUT'>"
p287
sS'STRONG'
p288
S"<class 'gluon.html.STRONG'>"
p289
sS'COL'
p290
S"<class 'gluon.html.COL'>"
p291
sS'service'
p292
S'<gluon.tools.Service object>'
p293
sS'SCRIPT'
p294
S"<class 'gluon.html.SCRIPT'>"
p295
sS'WEBMASTERS_EMAIL_2'
p296
S"'leo@annotat.it'"
p297
sS'TABLE'
p298
S"<class 'gluon.html.TABLE'>"
p299
sS'IS_IPV4'
p300
S"<class 'gluon.validators.IS_IPV4'>"
p301
sS'IS_LENGTH'
p302
S"<class 'gluon.validators.IS_LENGTH'>"
p303
sS'IS_IPV6'
p304
S"<class 'gluon.validators.IS_IPV6'>"
p305
sS'XML'
p306
S"<class 'gluon.html.XML'>"
p307
sS'B'
S"<class 'gluon.html.B'>"
p308
sS'IMG'
p309
S"<class 'gluon.html.IMG'>"
p310
sS'SQLTABLE'
p311
S"<class 'gluon.sqlhtml.SQLTABLE'>"
p312
sS'IS_MATCH'
p313
S"<class 'gluon.validators.IS_MATCH'>"
p314
sS'IS_ALPHANUMERIC'
p315
S"<class 'gluon.validators.IS_ALPHANUMERIC'>"
p316
sS'SPAN'
p317
S"<class 'gluon.html.SPAN'>"
p318
sS'IS_JSON'
p319
S"<class 'gluon.validators.IS_JSON'>"
p320
sS'IS_IPADDRESS'
p321
S"<class 'gluon.validators.IS_IPADDRESS'>"
p322
sS'WEBMASTERS_EMAIL_NAME'
p323
S"'leo'"
p324
sS'IS_SLUG'
p325
S"<class 'gluon.validators.IS_SLUG'>"
p326
sS'BEAUTIFY'
p327
S"<class 'gluon.html.BEAUTIFY'>"
p328
sS'META'
p329
S"<class 'gluon.html.META'>"
p330
sS'IS_DATE'
p331
S"<class 'gluon.validators.IS_DATE'>"
p332
sS'IS_EMAIL'
p333
S"<class 'gluon.validators.IS_EMAIL'>"
p334
sS'IS_NOT_EMPTY'
p335
S"<class 'gluon.validators.IS_NOT_EMPTY'>"
p336
sS'IS_FLOAT_IN_RANGE'
p337
S"<class 'gluon.validators.IS_FLOAT_IN_RANGE'>"
p338
sS'TBODY'
p339
S"<class 'gluon.html.TBODY'>"
p340
sS'CAT'
p341
S"<class 'gluon.html.CAT'>"
p342
sS'Field'
p343
S"<class 'gluon.dal.Field'>"
p344
sS'DIV'
p345
S"<class 'gluon.html.DIV'>"
p346
sS'LEGEND'
p347
S"<class 'gluon.html.LEGEND'>"
p348
sS'APP_NAME'
p349
S"'AnnotatIt'"
p350
sS'COLGROUP'
p351
S"<class 'gluon.html.COLGROUP'>"
p352
sS'DAL'
p353
S"<class 'gluon.dal.DAL'>"
p354
sS'TT'
p355
S"<class 'gluon.html.TT'>"
p356
sS'TR'
p357
S"<class 'gluon.html.TR'>"
p358
sS'__package__'
p359
S'None'
p360
sS'IFRAME'
p361
S"<class 'gluon.html.IFRAME'>"
p362
sS'TD'
p363
S"<class 'gluon.html.TD'>"
p364
sS'PluginManager'
p365
S"<class 'gluon.tools.PluginManager'>"
p366
sS'IS_URL'
p367
S"<class 'gluon.validators.IS_URL'>"
p368
sS'A'
S"<class 'gluon.html.A'>"
p369
sS'STYLE'
p370
S"<class 'gluon.html.STYLE'>"
p371
sS'IS_DATETIME_IN_RANGE'
p372
S"<class 'gluon.validators.IS_DATETIME_IN_RANGE'>"
p373
sS'IS_IMAGE'
p374
S"<class 'gluon.validators.IS_IMAGE'>"
p375
sS'I'
S"<class 'gluon.html.I'>"
p376
sS'crud'
p377
S'<gluon.tools.Crud object>'
p378
sS'IS_NOT_IN_DB'
p379
S"<class 'gluon.validators.IS_NOT_IN_DB'>"
p380
sg122
S"<Storage {'body': <cStringIO.StringO object at 0...da> at 0x284e848>, 'view': 'default/index.html'}>"
p381
sS'WEBMASTERS_EMAIL_DOMAIN'
p382
S"'annotatit.com'"
p383
sS'THEAD'
p384
S"<class 'gluon.html.THEAD'>"
p385
sS'ANY_OF'
p386
S"<class 'gluon.validators.ANY_OF'>"
p387
sS'IS_NULL_OR'
p388
S"<class 'gluon.validators.IS_EMPTY_OR'>"
p389
sg56
S"<Storage {'function': 'index', 'body': <cStringI...ications/AnnotatIt/', 'post_vars': <Storage {}>}>"
p390
sS'IS_EXPR'
p391
S"<class 'gluon.validators.IS_EXPR'>"
p392
sS'IS_IN_SET'
p393
S"<class 'gluon.validators.IS_IN_SET'>"
p394
sS'IS_UPLOAD_FILENAME'
p395
S"<class 'gluon.validators.IS_UPLOAD_FILENAME'>"
p396
sS'time'
p397
S"<module 'time' (built-in)>"
p398
sS'IS_DECIMAL_IN_RANGE'
p399
S"<class 'gluon.validators.IS_DECIMAL_IN_RANGE'>"
p400
sS'T'
S'<gluon.languages.translator object>'
p401
sssS'traceback'
p402
S'Traceback (most recent call last):\n  File "/home/leo/projects/AnnotatIt/annotatit-beta/heroku/annotatit-beta/gluon/restricted.py", line 212, in restricted\n    exec ccode in environment\n  File "/home/leo/projects/AnnotatIt/annotatit-beta/heroku/annotatit-beta/applications/AnnotatIt/models/db.py", line 63, in <module>\n    Field(\'nickname\', length=50, default=auth.user.first_name, requires=IS_NOT_EMPTY()),\nAttributeError: \'NoneType\' object has no attribute \'first_name\'\n'
p403
s.