(dp1
S'output'
p2
S"<type 'exceptions.SyntaxError'> invalid syntax (index.html, line 77)"
p3
sS'layer'
p4
S'/home/leo/projects/heroku_projects/annotatit/applications/AnnotatIt/views/default/index.html'
p5
sS'code'
p6
S'left_sidebar_enabled= False\nresponse.write(\'\\n\', escape=False)\nright_sidebar_enabled=False\nresponse.write(\'\\n\\n\', escape=False)\nresponse.write(\'<!--[if HTML5]><![endif]-->\\n<!DOCTYPE html>\\n<!-- paulirish.com/2008/conditional-stylesheets-vs-css-hacks-answer-neither/ -->\\n<!--[if lt IE 7]><html class="ie ie6 ie-lte9 ie-lte8 ie-lte7 no-js" lang="\', escape=False)\nresponse.write(T.accepted_language or \'en\')\nresponse.write(\'"> <![endif]-->\\n<!--[if IE 7]><html class="ie ie7 ie-lte9 ie-lte8 ie-lte7 no-js" lang="\', escape=False)\nresponse.write(T.accepted_language or \'en\')\nresponse.write(\'"> <![endif]-->\\n<!--[if IE 8]><html class="ie ie8 ie-lte9 ie-lte8 no-js" lang="\', escape=False)\nresponse.write(T.accepted_language or \'en\')\nresponse.write(\'"> <![endif]-->\\n<!--[if IE 9]><html class="ie9 ie-lte9 no-js" lang="\', escape=False)\nresponse.write(T.accepted_language or \'en\')\nresponse.write(\'"> <![endif]-->\\n<!--[if (gt IE 9)|!(IE)]><!--> <html class="no-js" lang="\', escape=False)\nresponse.write(T.accepted_language or \'en\')\nresponse.write(\'"> <!--<![endif]-->\\n<head>\\n<title>\', escape=False)\nresponse.write(response.title or request.application)\nresponse.write(\'</title>\\n  <!--[if !HTML5]>\\n      <meta http-equiv="X-UA-Compatible" content="IE=edge\', escape=False)\nresponse.write(not request.is_local and \',chrome=1\' or \'\')\nresponse.write(\'">\\n  <![endif]-->\\n  <!-- www.phpied.com/conditional-comments-block-downloads/ -->\\n  <!-- Always force latest IE rendering engine\\n       (even in intranet) & Chrome Frame\\n       Remove this if you use the .htaccess -->\\n\\t   \\n  <meta charset="utf-8" />\\n\\n  <!-- http://dev.w3.org/html5/markup/meta.name.html -->\\n  <meta name="application-name" content="\', escape=False)\nresponse.write(request.application)\nresponse.write(\'" />\\n\\n  <!--  Mobile Viewport Fix\\n        j.mp/mobileviewport & davidbcalhoun.com/2010/viewport-metatag\\n        device-width: Occupy full width of the screen in its current orientation\\n        initial-scale = 1.0 retains dimensions instead of zooming out if page height > device height\\n        user-scalable = yes allows the user to zoom in -->\\n  <meta name="viewport" content="width=device-width, initial-scale=1.0" />\\n\\n  <link rel="shortcut icon" href="\', escape=False)\nresponse.write(URL(\'static\',\'images/favicon.ico\'))\nresponse.write(\'" type="image/x-icon">\\n  <link rel="apple-touch-icon" href="\', escape=False)\nresponse.write(URL(\'static\',\'images/favicon.png\'))\nresponse.write(\'">\\n\\n  <!-- All JavaScript at the bottom, except for Modernizr which enables\\n       HTML5 elements & feature detects -->\\n  <script src="\', escape=False)\nresponse.write(URL(\'static\',\'js/modernizr.custom.js\'))\nresponse.write(\'"></script>\\n\\n  <!-- include stylesheets -->\\n  \', escape=False)\nresponse.files.append(URL(\'static\',\'css/web2py.css\'))\nresponse.files.append(URL(\'static\',\'css/bootstrap.min.css\'))\nresponse.files.append(URL(\'static\',\'css/bootstrap-responsive.min.css\'))\nresponse.files.append(URL(\'static\',\'css/web2py_bootstrap.css\'))\nresponse.write(\'\\n\\n  \', escape=False)\nresponse.write(\'<script type="text/javascript"><!--\\n    // These variables are used by the web2py_ajax_init function in web2py_ajax.js (which is loaded below).\\n    var w2p_ajax_confirm_message = "\', escape=False)\nresponse.write(T(\'Are you sure you want to delete this object?\'))\nresponse.write(\'";\\n    var w2p_ajax_date_format = "\', escape=False)\nresponse.write(T(\'%Y-%m-%d\'))\nresponse.write(\'";\\n    var w2p_ajax_datetime_format = "\', escape=False)\nresponse.write(T(\'%Y-%m-%d %H:%M:%S\'))\nresponse.write(\'";\\n    var ajax_error_500 = \\\'\', escape=False)\nresponse.write(XML(T(\'An error occured, please %s the page\') % A(T(\'reload\'), _href=URL(args=request.args, vars=request.vars))))\nresponse.write("\'\\n    //--></script>\\n", escape=False)\nresponse.files.insert(0,URL(\'static\',\'js/jquery.js\'))\nresponse.files.insert(1,URL(\'static\',\'css/calendar.css\'))\nresponse.files.insert(2,URL(\'static\',\'js/calendar.js\'))\nresponse.files.insert(3,URL(\'static\',\'js/web2py.js\'))\nresponse.include_meta()\nresponse.include_files()\nresponse.write(\'\\n\', escape=False)\nresponse.write(\'\\n\\n  \', escape=False)\n# using sidebars need to know what sidebar you want to use\nleft_sidebar_enabled = globals().get(\'left_sidebar_enabled\',False)\nright_sidebar_enabled = globals().get(\'right_sidebar_enabled\',False)\nmiddle_columns = {0:\'span12\',1:\'span9\',2:\'span6\'}[\n(left_sidebar_enabled and 1 or 0)+(right_sidebar_enabled and 1 or 0)]\nresponse.write(\'\\n\\n  <!-- uncomment here to load jquery-ui\\n       <link rel="stylesheet" href="http://ajax.googleapis.com/ajax/libs/jqueryui/1.8.16/themes/base/jquery-ui.css" type="text/css" media="all" />\\n       <script src="http://ajax.googleapis.com/ajax/libs/jqueryui/1.8.16/jquery-ui.min.js" type="text/javascript"></script>\\n       uncomment to load jquery-ui //-->\\n  <noscript><link href="\', escape=False)\nresponse.write(URL(\'static\', \'css/web2py_bootstrap_nojs.css\'))\nresponse.write(\'" rel="stylesheet" type="text/css" /></noscript>\\n\\n  \', escape=False)\nresponse.write("\\n\\n <style>\\n\\n    /* GLOBAL STYLES\\n    -------------------------------------------------- */\\n    /* Padding below the footer and lighter body text */\\n\\n    body {\\n      padding-bottom: 40px;\\n      color: #5a5a5a;\\n    }\\n\\n\\n\\n    /* CUSTOMIZE THE NAVBAR\\n    -------------------------------------------------- */\\n\\n    /* Special class on .container surrounding .navbar, used for positioning it into place. */\\n    .navbar-wrapper {\\n      position: absolute;\\n      top: 0;\\n      left: 0;\\n      right: 0;\\n      z-index: 10;\\n      margin-top: 20px;\\n      margin-bottom: -90px; /* Negative margin to pull up carousel. 90px is roughly margins and height of navbar. */\\n      //background-color: #FFA635;\\n    }\\n    .navbar-wrapper .navbar {\\n\\n    }\\n\\n    /* Remove border and change up box shadow for more contrast */\\n    .navbar .navbar-inner {\\n      border: 0;\\n      -webkit-box-shadow: 0 2px 10px rgba(0,0,0,.25);\\n         -moz-box-shadow: 0 2px 10px rgba(0,0,0,.25);\\n              box-shadow: 0 2px 10px rgba(0,0,0,.25);\\n    }\\n\\n    /* Downsize the brand/project name a bit */\\n    .navbar .brand {\\n      padding: 14px 20px 16px; /* Increase vertical padding to match navbar links */\\n      font-size: 16px;\\n      font-weight: bold;\\n      text-shadow: 0 -1px 0 rgba(0,0,0,.5);\\n    }\\n\\n    /* Navbar links: increase padding for taller navbar */\\n    .navbar .nav > li > a {\\n      padding: 15px 20px;\\n    }\\n\\n    /* Offset the responsive button for proper vertical alignment */\\n    .navbar .btn-navbar {\\n      margin-top: 10px;\\n    }\\n\\n\\n\\n    /* CUSTOMIZE THE CAROUSEL\\n    -------------------------------------------------- */\\n\\n    /* Carousel base class */\\n    .carousel {\\n      margin-bottom: 60px;\\n    }\\n\\n    .carousel .container {\\n      position: relative;\\n      z-index: 9;\\n    }\\n\\n    .carousel-control {\\n      height: 80px;\\n      margin-top: 0;\\n      font-size: 120px;\\n      text-shadow: 0 1px 1px rgba(0,0,0,.4);\\n      background-color: transparent;\\n      border: 0;\\n      z-index: 10;\\n    }\\n\\n    .carousel .item {\\n      height: 500px;\\n    }\\n    .carousel img {\\n      position: absolute;\\n      top: 0;\\n      left: 0;\\n      min-width: 100%;\\n      height: 500px;\\n    }\\n\\n    .carousel-caption {\\n      background-color: transparent;\\n      position: static;\\n      max-width: 550px;\\n      padding: 0 20px;\\n      margin-top: 200px;\\n    }\\n    .carousel-caption h1,\\n    .carousel-caption .lead {\\n      margin: 0;\\n      line-height: 1.25;\\n      color: #fff;\\n      text-shadow: 0 1px 1px rgba(0,0,0,.4);\\n    }\\n    .carousel-caption .btn {\\n      margin-top: 10px;\\n    }\\n\\n\\n\\n    /* MARKETING CONTENT\\n    -------------------------------------------------- */\\n\\n    /* Center align the text within the three columns below the carousel */\\n    .marketing .span4 {\\n      text-align: center;\\n      background-color: #FFD510;\\n      border:0px solid;\\n      border-radius:25px;\\n    }\\n    .marketing h2 {\\n      font-weight: normal;\\n    }\\n    .marketing .span4 p {\\n      margin-left: 10px;\\n      margin-right: 10px;\\n       text-align: center;\\n       \\n    }\\n\\n\\n    /* Featurettes\\n    ------------------------- */\\n\\n    .featurette-divider {\\n      margin: 80px 0; /* Space out the Bootstrap <hr> more */\\n    }\\n    .featurette {\\n      padding-top: 120px; /* Vertically center images part 1: add padding above and below text. */\\n      overflow: hidden; /* Vertically center images part 2: clear their floats. */\\n    }\\n    .featurette-image {\\n      margin-top: -120px; /* Vertically center images part 3: negative margin up the image the same amount of the padding to center it. */\\n    }\\n\\n    /* Give some space on the sides of the floated elements so text doesn\'t run right into it. */\\n    .featurette-image.pull-left {\\n      margin-right: 40px;\\n    }\\n    .featurette-image.pull-right {\\n      margin-left: 40px;\\n    }\\n\\n    /* Thin out the marketing headings */\\n    .featurette-heading {\\n      font-size: 50px;\\n      font-weight: 300;\\n      line-height: 1;\\n      letter-spacing: -1px;\\n    }\\n\\n\\n\\n    /* RESPONSIVE CSS\\n    -------------------------------------------------- */\\n\\n    @media (max-width: 979px) {\\n\\n      .container.navbar-wrapper {\\n        margin-bottom: 0;\\n        width: auto;\\n      }\\n      .navbar-inner {\\n        border-radius: 0;\\n        margin: -20px 0;\\n      }\\n\\n      .carousel .item {\\n        height: 500px;\\n      }\\n      .carousel img {\\n        width: auto;\\n        height: 500px;\\n      }\\n\\n      .featurette {\\n        height: auto;\\n        padding: 0;\\n      }\\n      .featurette-image.pull-left,\\n      .featurette-image.pull-right {\\n        display: block;\\n        float: none;\\n        max-width: 40%;\\n        margin: 0 auto 20px;\\n      }\\n    }\\n\\n\\n    @media (max-width: 767px) {\\n\\n      .navbar-inner {\\n        margin: -20px;\\n      }\\n\\n      .carousel {\\n        margin-left: -20px;\\n        margin-right: -20px;\\n      }\\n      .carousel .container {\\n\\n      }\\n      .carousel .item {\\n        height: 300px;\\n      }\\n      .carousel img {\\n        height: 300px;\\n      }\\n      .carousel-caption {\\n        width: 65%;\\n        padding: 0 70px;\\n        margin-top: 100px;\\n      }\\n      .carousel-caption h1 {\\n        font-size: 30px;\\n      }\\n      .carousel-caption .lead,\\n      .carousel-caption .btn {\\n        font-size: 18px;\\n      }\\n\\n      .marketing .span4 + .span4 {\\n        margin-top: 40px;\\n      }\\n\\n      .featurette-heading {\\n        font-size: 30px;\\n      }\\n      .featurette .lead {\\n        font-size: 18px;\\n        line-height: 1.5;\\n      }\\n\\n    }\\n    </style>\\n\\n\\n", escape=False)\nresponse.write(\'\\n</head>\\n\\n<body>\\n    <!-- NAVBAR\\n    ================================================== -->\\n    <div class="navbar-wrapper">\\n      <!-- Wrap the .navbar in .container to center it within the absolutely positioned parent. -->\\n      <div class="container">\\n\\n        <div class="navbar navbar-inverse">\\n          <div class="navbar-inner">\\n            <!-- Responsive Navbar Part 1: Button for triggering responsive navbar (not covered in tutorial). Include responsive CSS to utilize. -->\\n            <button type="button" class="btn btn-navbar" data-toggle="collapse" data-target=".nav-collapse">\\n              <span class="icon-bar"></span>\\n              <span class="icon-bar"></span>\\n              <span class="icon-bar"></span>\\n            </button>\\n    \\t\', escape=False)\nresponse.write(response.logo_img or \'\')\nresponse.write(\'\\n    \\t\', escape=False)\nif not auth.user:\n    response.write(\'\\n            <ul id="navbar" class="nav pull-right">\', escape=False)\n    response.write(A( \'Login\', _href=URL(\'user\', \'login\'), vars=dict(_next=URL(\'my_videos\')) ))\n    response.write(\'</ul>\\n        \', escape=False)\nelse:\n    response.write(\'\\n            <ul id="navbar" class="nav pull-right">\\n            <li> \', escape=False)\n    response.write(A( \'My Media\', _href=URL(\'my_videos\') ))\n    response.write(\' </li>\\n            <li> \', escape=False)\n    response.write(A( \'Add Media\', _href=URL(\'add_video\') ))\n    response.write(\' </li>\\n            </ul>\\n        \', escape=False)\n    pass\nresponse.write(\'\\n          </div><!-- /.navbar-inner -->\\n        </div><!-- /.navbar -->\\n\\n      </div> <!-- /.container -->\\n    </div><!-- /.navbar-wrapper -->\\n<br/>        \\n<br/>        \\n<br/>    \\n<br/>    \\n\\n  <div class="container">\\n\\n    <section id="main" class="main row">\\n\\n        <div class="\', escape=False)\nresponse.write(middle_columns)\nresponse.write(\'">\\n            \', escape=False)\nresponse.write(\'\\n\\n\', escape=False)\nif not auth.user\nresponse.write(\'\\n\\n    <!-- Carousel\\n    ================================================== -->\\n    <div id="myCarousel" class="carousel slide">\\n      <div class="carousel-inner">\\n        <div class="item active">\\n          <img src="\', escape=False)\nresponse.write(URL(\'static\', \'images/annotatit_banner.png\'))\nresponse.write(\'" alt="Annotatit Banner">\\n          <!-- change image for AnnotatIt logo-->\\n          <div class="container">\\n            <div class="carousel-caption">\\n              <h1>AnnotatIt.</h1>\\n              <p class="lead">The easiest way to make collaborative synchronized notes over a video or audio file.</p>\\n              <a class="btn btn-large btn-primary" href="\', escape=False)\nresponse.write(URL(\'user\', \'login\'))\nresponse.write(\'">Start now</a>\\n            </div>\\n          </div>\\n        </div>\\n        <div class="item">\\n          <img src="\', escape=False)\nresponse.write(URL(\'static\', \'images/collaborative_banner.png\'))\nresponse.write(\'" alt="">\\n          <div class="container">\\n            <div class="carousel-caption">\\n              <h1>Collaborative File Annotation.</h1>\\n              <p class="lead">Add an audio or video file, and share with your people!</p>\\n              <a class="btn btn-large btn-primary" href="\', escape=False)\nresponse.write(URL(\'user\', \'login\'))\nresponse.write(\'">Suscribe Now</a>\\n            </div>\\n          </div>\\n        </div>\\n        <div class="item">\\n          <img src="\', escape=False)\nresponse.write(URL(\'static\', \'images/synch_banner.png\'))\nresponse.write(\'" alt="">\\n          <div class="container">\\n            <div class="carousel-caption">\\n              <h1>Synchronized Annotations</h1>\\n              <p class="lead">Your comments and tags are synchronized in time with the video.</p>\\n              <p class="lead">You take the notes, AnnotatIt synchronizes them automatically.</p>\\n              <a class="btn btn-large btn-primary" href="\', escape=False)\nresponse.write(URL(\'user\', \'login\'))\nresponse.write(\'">I start now!</a>\\n            </div>\\n          </div>\\n        </div>\\n        \\n        <!--<div class="item">\\n          <img src="../assets/img/examples/slide-02.jpg" alt="">\\n          <div class="container">\\n            <div class="carousel-caption">\\n              <h1>Embed the results where you need it.</h1>\\n              <p class="lead">Once annotated, you can share the results page in your page or blog!</p>\\n              <a class="btn btn-large btn-primary" href="#">I want to use it first!</a>\\n            </div>\\n          </div>\\n        </div>-->\\n      </div>\\n      <a class="left carousel-control" href="#myCarousel" data-slide="prev">&lsaquo;</a>\\n      <a class="right carousel-control" href="#myCarousel" data-slide="next">&rsaquo;</a>\\n    </div><!-- /.carousel -->\\n\\n\\n\\n    <!-- Marketing messaging and featurettes\\n    ================================================== -->\\n    <!-- Wrap the rest of the page in another container to center all the content. -->\\n\\n    <div class="container marketing">\\n\\n      <!-- Three columns of text below the carousel -->\\n      <div class="row">\\n        <div class="span4">\\n          <h2>Basic</h2>\\n          <img class="img-circle" data-src="holder.js/140x140">\\n          \\n          <p>Take notes on any video from Youtube or Vimeo. </p>\\n          <p> Embed the result page where you need it</p>\\n          <p> Download your notes to your computer</p>\\n          <p><a class="btn btn-primary " href="\', escape=False)\nresponse.write(URL(\'user\', \'login\'))\nresponse.write(\'">Start Now &raquo;</a></p>\\n        </div><!-- /.span4 -->\\n        <div class="span4">\\n          <h2>Pro</h2>\\n          <img class="img-circle" data-src="holder.js/140x140">\\n          <p> All from Basic Plan  <span >  PLUS</span></p> \\n          <p>Upload audio & video files to the private area. </p>\\n          <p>Privacy protection</p>\\n          <p>Personalized tags and groups </p>\\n          <p>Other features </p>\\n          <p><a class="btn btn-primary " href="#">Contact us &raquo;</a></p>\\n        </div><!-- /.span4 -->\\n        <div class="span4">\\n          <h2>Enterprise</h2>\\n          <img class="img-circle" data-src="holder.js/140x140">\\n          \\n          <p> Personalized plans and features for your needs</p>\\n          <p> Embed the service in your own site</p>\\n          <p> Tailored Professional Support </p>\\n          <p><a class="btn btn-primary " href="#">Contact us for details &raquo;</a></p>\\n        </div><!-- /.span4 -->\\n      </div><!-- /.row -->\\n\\n\\n      <!-- START THE FEATURETTES -->\\n<!--\\n      <hr class="featurette-divider">\\n\\n      <div class="featurette">\\n        <img class="featurette-image pull-left" src="../assets/img/examples/browser-icon-firefox.png">\\n        <h2 class="featurette-heading">Collaborate with others! <span class="muted">Many people can comment in the same file.</span></h2>\\n        <p class="lead">Invite other people to coolaborate with you, you all can take notes on the same file!</p>\\n      </div>\\n      \\n      <hr class="featurette-divider">\\n\\n      <div class="featurette">\\n        <img class="featurette-image pull-right" src="../assets/img/examples/browser-icon-chrome.png">\\n        <h2 class="featurette-heading"> Synchronized Comments. <span class="muted">One click will take you to the moment you commented</span></h2>\\n        <p class="lead"> Comments are automatically synchronized so you don\\\'t have to remember when in the video \\n        you made the comment. AnnotatIt will do it for you! Just click on the time. </p>\\n        <p class="lead"> You can edit your previous comments. </p>\\n      </div>\\n\\n      <hr class="featurette-divider">\\n\\n      <div class="featurette">\\n        <img class="featurette-image pull-left" src="../assets/img/examples/browser-icon-safari.png">\\n        <h2 class="featurette-heading">What do other people say: <span class="muted"> AnnotatIt is Awesome.</span></h2>\\n        <p class="lead">"This thing is great!" - Jean</p>\\n        <p class="lead">"With this I can analyze audio files of my students much faster" - Christine</p>\\n        <p class="lead">"Is the best annotation online software!" - Leo</p>\\n      </div>\\n\\n      <hr class="featurette-divider">\\n-->\\n      <!-- /END THE FEATURETTES -->\\n    </div><!-- /.container -->\\n\\n\', escape=False)\nelse:\n    response.write(\' <!-- If it is a logged user-->\\n\\n <div class="container marketing">\\n\\n      <!-- Three columns of text below the carousel -->\\n      <div class="row">\\n        <div class="span6">\\n          <h2>My Media</h2>\\n          <p> List your media files</p> \\n          <p><a class="btn btn-primary " href="\', escape=False)\n    response.write(URL(\'my_videos\'))\n    response.write(\'">My Media &raquo;</a></p>\\n        </div><!-- /.span4 -->\\n        <div class="span6">\\n          <h2>Add Media</h2>\\n          <p> Add new media files to your AnnotatIt collection<p/>\\n          <p>Youtube and Vimeo files supported</p>\\n          <p><a class="btn btn-primary " href="#">Add Media &raquo;</a></p>\\n        </div><!-- /.span4 -->\\n      </div><!-- /.row -->\\n\\n\\n\', escape=False)\n    pass\nresponse.write(\'\\n\\n\', escape=False)\nresponse.write(\'\\n        </div>\\n\\n    </section><!--/main-->\\n\\n    <!-- Footer ================================================== -->\\n    <div class="row">\\n        <footer class="footer span12" id="footer">\\n            <div class="footer-content">\\n                \', escape=False)\nresponse.write(\' <!-- this is default footer -->\\n                <div class="copyright pull-left">\', escape=False)\nresponse.write(T(\'Copyright\'))\nresponse.write(\' &#169; \', escape=False)\nresponse.write(request.now.year)\nresponse.write(\'</div>\\n                \', escape=False)\nresponse.write(\'\\n            </div>\\n        </footer>\\n    </div>\\n\\n  </div> <!-- /container -->\\n\\n  <!-- The javascript =============================================\\n       (Placed at the end of the document so the pages load faster) -->\\n  <!--<script src="\', escape=False)\nresponse.write(URL(\'static\',\'js/bootstrap.min.js\'))\nresponse.write(\'"></script>\\n  <script src="\', escape=False)\nresponse.write(URL(\'static\',\'js/web2py_bootstrap.js\'))\nresponse.write(\'"></script>-->\\n<script src="http://netdna.bootstrapcdn.com/twitter-bootstrap/2.3.2/js/bootstrap.min.js"></script>\\n<script>\\n  !function ($) {\\n    $(function(){\\n      // carousel demo\\n      $(\\\'#myCarousel\\\').carousel()\\n    })\\n  }(window.jQuery)\\n</script>\\n<script src="../assets/js/holder/holder.js"></script>\\n  \\n  <!--[if lt IE 7 ]>\\n      <script src="\', escape=False)\nresponse.write(URL(\'static\',\'js/dd_belatedpng.js\'))\nresponse.write(\'"></script>\\n      <script> DD_belatedPNG.fix(\\\'img, .png_bg\\\'); //fix any <img> or .png_bg background-images </script>\\n      <![endif]-->\\n  \', escape=False)\nresponse.write(\'\\n  \', escape=False)\nresponse.write(\'\\n    <script>\\n      (function(i,s,o,g,r,a,m){i[\\\'GoogleAnalyticsObject\\\']=r;i[r]=i[r]||function(){\\n      (i[r].q=i[r].q||[]).push(arguments)},i[r].l=1*new Date();a=s.createElement(o),\\n      m=s.getElementsByTagName(o)[0];a.async=1;a.src=g;m.parentNode.insertBefore(a,m)\\n      })(window,document,\\\'script\\\',\\\'//www.google-analytics.com/analytics.js\\\',\\\'ga\\\');\\n\\n      ga(\\\'create\\\', \\\'UA-41054956-1\\\', \\\'annotatit.com\\\');\\n      ga(\\\'send\\\', \\\'pageview\\\');\\n\\n    </script>\\n  <script src="\', escape=False)\nresponse.write(URL(\'static\',\'js/share.js\',vars=dict(static=URL(\'static\',\'images\'))))\nresponse.write(\'"></script>\\n  \\n  \\n</body>\\n</html>\\n\\n\', escape=False)'
p7
sS'snapshot'
p8
(dp9
S'exception'
p10
(dp11
S'__getslice__'
p12
S"<method-wrapper '__getslice__' of exceptions.SyntaxError object>"
p13
sS'text'
p14
S"'if not auth.user\\n'"
p15
sS'__str__'
p16
S"<method-wrapper '__str__' of exceptions.SyntaxError object>"
p17
sS'__reduce__'
p18
S'<built-in method __reduce__ of exceptions.SyntaxError object>'
p19
sS'__dict__'
p20
S'{}'
p21
sS'__sizeof__'
p22
S'<built-in method __sizeof__ of exceptions.SyntaxError object>'
p23
sS'__init__'
p24
S"<method-wrapper '__init__' of exceptions.SyntaxError object>"
p25
sS'__setattr__'
p26
S"<method-wrapper '__setattr__' of exceptions.SyntaxError object>"
p27
sS'__reduce_ex__'
p28
S'<built-in method __reduce_ex__ of exceptions.SyntaxError object>'
p29
sS'__new__'
p30
S'<built-in method __new__ of type object>'
p31
sS'__format__'
p32
S'<built-in method __format__ of exceptions.SyntaxError object>'
p33
sS'__class__'
p34
S"<type 'exceptions.SyntaxError'>"
p35
sS'filename'
p36
S"'/home/leo/projects/heroku_projects/annotatit/applications/AnnotatIt/views/default/index.html'"
p37
sS'lineno'
p38
S'77'
p39
sS'msg'
p40
S"'invalid syntax'"
p41
sS'__doc__'
p42
S"'Invalid syntax.'"
p43
sS'__getitem__'
p44
S"<method-wrapper '__getitem__' of exceptions.SyntaxError object>"
p45
sS'__setstate__'
p46
S'<built-in method __setstate__ of exceptions.SyntaxError object>'
p47
sS'__getattribute__'
p48
S"<method-wrapper '__getattribute__' of exceptions.SyntaxError object>"
p49
sS'print_file_and_line'
p50
S'None'
p51
sS'args'
p52
S"('invalid syntax', ('/home/leo/projects/heroku_projects/annotatit/applications/AnnotatIt/views/default/index.html', 77, 17, 'if not auth.user\\n'))"
p53
sS'__subclasshook__'
p54
S'<built-in method __subclasshook__ of type object>'
p55
sS'offset'
p56
S'17'
p57
sS'__unicode__'
p58
S'<built-in method __unicode__ of exceptions.SyntaxError object>'
p59
sS'__delattr__'
p60
S"<method-wrapper '__delattr__' of exceptions.SyntaxError object>"
p61
sS'__repr__'
p62
S"<method-wrapper '__repr__' of exceptions.SyntaxError object>"
p63
sS'__hash__'
p64
S"<method-wrapper '__hash__' of exceptions.SyntaxError object>"
p65
ssS'evalue'
p66
S'invalid syntax (index.html, line 77)'
p67
sS'request'
p68
cgluon.html
XML_unpickle
p69
(S's\x9fE\x00\x00<div><table><tr><td style="font-weight:bold;vertical-align:top">ajax</td><td valign="top">:</td><td><div>False</div></td></tr><tr><td style="font-weight:bold;vertical-align:top">application</td><td valign="top">:</td><td><div>AnnotatIt</div></td></tr><tr><td style="font-weight:bold;vertical-align:top">args</td><td valign="top">:</td><td><div><table></table></div></td></tr><tr><td style="font-weight:bold;vertical-align:top">body</td><td valign="top">:</td><td><div>&lt;cStringIO.StringO object at 0x1dc9960&gt;</div></td></tr><tr><td style="font-weight:bold;vertical-align:top">cid</td><td valign="top">:</td><td><div>None</div></td></tr><tr><td style="font-weight:bold;vertical-align:top">client</td><td valign="top">:</td><td><div>127.0.0.1</div></td></tr><tr><td style="font-weight:bold;vertical-align:top">controller</td><td valign="top">:</td><td><div>default</div></td></tr><tr><td style="font-weight:bold;vertical-align:top">cookies</td><td valign="top">:</td><td><div><table><tr><td style="font-weight:bold;vertical-align:top">session_id_admin</td><td valign="top">:</td><td><div>127.0.0.1-5f14a4dc-f9fb-4d0e-8a04-45251c0640c9<table><tr><td style="font-weight:bold;vertical-align:top">comment</td><td valign="top">:</td><td><div></div></td></tr><tr><td style="font-weight:bold;vertical-align:top">domain</td><td valign="top">:</td><td><div></div></td></tr><tr><td style="font-weight:bold;vertical-align:top">expires</td><td valign="top">:</td><td><div></div></td></tr><tr><td style="font-weight:bold;vertical-align:top">httponly</td><td valign="top">:</td><td><div></div></td></tr><tr><td style="font-weight:bold;vertical-align:top">max-age</td><td valign="top">:</td><td><div></div></td></tr><tr><td style="font-weight:bold;vertical-align:top">path</td><td valign="top">:</td><td><div></div></td></tr><tr><td style="font-weight:bold;vertical-align:top">secure</td><td valign="top">:</td><td><div></div></td></tr><tr><td style="font-weight:bold;vertical-align:top">version</td><td valign="top">:</td><td><div></div></td></tr></table></div></td></tr><tr><td style="font-weight:bold;vertical-align:top">session_id_annotatit</td><td valign="top">:</td><td><div>127.0.0.1-12c40481-d262-4f55-94d2-9005d561bf50<table><tr><td style="font-weight:bold;vertical-align:top">comment</td><td valign="top">:</td><td><div></div></td></tr><tr><td style="font-weight:bold;vertical-align:top">domain</td><td valign="top">:</td><td><div></div></td></tr><tr><td style="font-weight:bold;vertical-align:top">expires</td><td valign="top">:</td><td><div></div></td></tr><tr><td style="font-weight:bold;vertical-align:top">httponly</td><td valign="top">:</td><td><div></div></td></tr><tr><td style="font-weight:bold;vertical-align:top">max-age</td><td valign="top">:</td><td><div></div></td></tr><tr><td style="font-weight:bold;vertical-align:top">path</td><td valign="top">:</td><td><div></div></td></tr><tr><td style="font-weight:bold;vertical-align:top">secure</td><td valign="top">:</td><td><div></div></td></tr><tr><td style="font-weight:bold;vertical-align:top">version</td><td valign="top">:</td><td><div></div></td></tr></table></div></td></tr></table></div></td></tr><tr><td style="font-weight:bold;vertical-align:top">env</td><td valign="top">:</td><td><div><table><tr><td style="font-weight:bold;vertical-align:top">app_folders</td><td valign="top">:</td><td><div>set([&#x27;/home/leo/projects/heroku_projects/annotatit/applications/AnnotatIt/&#x27;])</div></td></tr><tr><td style="font-weight:bold;vertical-align:top">applications_parent</td><td valign="top">:</td><td><div>/home/leo/projects/heroku_projects/annotatit</div></td></tr><tr><td style="font-weight:bold;vertical-align:top">db_sessions</td><td valign="top">:</td><td><div>set([])</div></td></tr><tr><td style="font-weight:bold;vertical-align:top">debugging</td><td valign="top">:</td><td><div>False</div></td></tr><tr><td style="font-weight:bold;vertical-align:top">gluon_parent</td><td valign="top">:</td><td><div>/home/leo/projects/heroku_projects/annotatit</div></td></tr><tr><td style="font-weight:bold;vertical-align:top">gunicorn_socket</td><td valign="top">:</td><td><div>&lt;socket._socketobject object at 0x241f280&gt;</div></td></tr><tr><td style="font-weight:bold;vertical-align:top">http_accept</td><td valign="top">:</td><td><div>text/html,application/xhtml+xml,application/xml;q=0.9,*/*;q=0.8</div></td></tr><tr><td style="font-weight:bold;vertical-align:top">http_accept_encoding</td><td valign="top">:</td><td><div>gzip,deflate,sdch</div></td></tr><tr><td style="font-weight:bold;vertical-align:top">http_accept_language</td><td valign="top">:</td><td><div>en-US,en;q=0.8,fr;q=0.6,es;q=0.4</div></td></tr><tr><td style="font-weight:bold;vertical-align:top">http_cache_control</td><td valign="top">:</td><td><div>max-age=0</div></td></tr><tr><td style="font-weight:bold;vertical-align:top">http_connection</td><td valign="top">:</td><td><div>keep-alive</div></td></tr><tr><td style="font-weight:bold;vertical-align:top">http_cookie</td><td valign="top">:</td><td><div>session_id_admin=127.0.0.1-5f14a4dc-f9fb-4d0e-8a04-45251c0640c9; session_id_annotatit=127.0.0.1-12c40481-d262-4f55-94d2-9005d561bf50</div></td></tr><tr><td style="font-weight:bold;vertical-align:top">http_host</td><td valign="top">:</td><td><div>localhost:5000</div></td></tr><tr><td style="font-weight:bold;vertical-align:top">http_referer</td><td valign="top">:</td><td><div>http://localhost:5000/user/login</div></td></tr><tr><td style="font-weight:bold;vertical-align:top">http_user_agent</td><td valign="top">:</td><td><div>Mozilla/5.0 (X11; Linux x86_64) AppleWebKit/537.36 (KHTML, like Gecko) Chrome/27.0.1453.110 Safari/537.36</div></td></tr><tr><td style="font-weight:bold;vertical-align:top">is_jython</td><td valign="top">:</td><td><div>False</div></td></tr><tr><td style="font-weight:bold;vertical-align:top">is_pypy</td><td valign="top">:</td><td><div>False</div></td></tr><tr><td style="font-weight:bold;vertical-align:top">local_hosts</td><td valign="top">:</td><td><div><table><tr><td><div>cotita</div></td></tr><tr><td><div>::ffff:127.0.0.1</div></td></tr><tr><td><div>::1</div></td></tr><tr><td><div>localhost</div></td></tr><tr><td><div>127.0.1.1</div></td></tr><tr><td><div>127.0.0.1</div></td></tr></table></div></td></tr><tr><td style="font-weight:bold;vertical-align:top">path_info</td><td valign="top">:</td><td><div>/</div></td></tr><tr><td style="font-weight:bold;vertical-align:top">query_string</td><td valign="top">:</td><td><div></div></td></tr><tr><td style="font-weight:bold;vertical-align:top">raw_uri</td><td valign="top">:</td><td><div>/</div></td></tr><tr><td style="font-weight:bold;vertical-align:top">remote_addr</td><td valign="top">:</td><td><div>127.0.0.1</div></td></tr><tr><td style="font-weight:bold;vertical-align:top">remote_port</td><td valign="top">:</td><td><div>44420</div></td></tr><tr><td style="font-weight:bold;vertical-align:top">request_method</td><td valign="top">:</td><td><div>GET</div></td></tr><tr><td style="font-weight:bold;vertical-align:top">request_uri</td><td valign="top">:</td><td><div>/AnnotatIt/default/index</div></td></tr><tr><td style="font-weight:bold;vertical-align:top">script_name</td><td valign="top">:</td><td><div></div></td></tr><tr><td style="font-weight:bold;vertical-align:top">server_name</td><td valign="top">:</td><td><div>localhost</div></td></tr><tr><td style="font-weight:bold;vertical-align:top">server_port</td><td valign="top">:</td><td><div>5000</div></td></tr><tr><td style="font-weight:bold;vertical-align:top">server_protocol</td><td valign="top">:</td><td><div>HTTP/1.1</div></td></tr><tr><td style="font-weight:bold;vertical-align:top">server_software</td><td valign="top">:</td><td><div>gunicorn/0.17.2</div></td></tr><tr><td style="font-weight:bold;vertical-align:top">web2py_crontype</td><td valign="top">:</td><td><div>soft</div></td></tr><tr><td style="font-weight:bold;vertical-align:top">web2py_original_uri</td><td valign="top">:</td><td><div>/</div></td></tr><tr><td style="font-weight:bold;vertical-align:top">web2py_path</td><td valign="top">:</td><td><div>/home/leo/projects/heroku_projects/annotatit</div></td></tr><tr><td style="font-weight:bold;vertical-align:top">web2py_version</td><td valign="top">:</td><td><div>2.4.6-stable+timestamp.2013.04.06.17.37.38</div></td></tr><tr><td style="font-weight:bold;vertical-align:top">wsgi_errors</td><td valign="top">:</td><td><div>&lt;open file &#x27;&lt;stderr&gt;&#x27;, mode &#x27;w&#x27; at 0x7f7259d4d270&gt;</div></td></tr><tr><td style="font-weight:bold;vertical-align:top">wsgi_file_wrapper</td><td valign="top">:</td><td><div>&lt;class gunicorn.http.wsgi.FileWrapper at 0x1d47bb0&gt;</div></td></tr><tr><td style="font-weight:bold;vertical-align:top">wsgi_input</td><td valign="top">:</td><td><div>&lt;gunicorn.http.body.Body object at 0x2339490&gt;</div></td></tr><tr><td style="font-weight:bold;vertical-align:top">wsgi_multiprocess</td><td valign="top">:</td><td><div>False</div></td></tr><tr><td style="font-weight:bold;vertical-align:top">wsgi_multithread</td><td valign="top">:</td><td><div>False</div></td></tr><tr><td style="font-weight:bold;vertical-align:top">wsgi_run_once</td><td valign="top">:</td><td><div>False</div></td></tr><tr><td style="font-weight:bold;vertical-align:top">wsgi_url_scheme</td><td valign="top">:</td><td><div>http</div></td></tr><tr><td style="font-weight:bold;vertical-align:top">wsgi_version</td><td valign="top">:</td><td><div><table><tr><td><div>1</div></td></tr><tr><td><div>0</div></td></tr></table></div></td></tr></table></div></td></tr><tr><td style="font-weight:bold;vertical-align:top">extension</td><td valign="top">:</td><td><div>html</div></td></tr><tr><td style="font-weight:bold;vertical-align:top">folder</td><td valign="top">:</td><td><div>/home/leo/projects/heroku_projects/annotatit/applications/AnnotatIt/</div></td></tr><tr><td style="font-weight:bold;vertical-align:top">function</td><td valign="top">:</td><td><div>index</div></td></tr><tr><td style="font-weight:bold;vertical-align:top">get_vars</td><td valign="top">:</td><td><div><table></table></div></td></tr><tr><td style="font-weight:bold;vertical-align:top">global_settings</td><td valign="top">:</td><td><div><table><tr><td style="font-weight:bold;vertical-align:top">app_folders</td><td valign="top">:</td><td><div>set([&#x27;/home/leo/projects/heroku_projects/annotatit/applications/AnnotatIt/&#x27;])</div></td></tr><tr><td style="font-weight:bold;vertical-align:top">applications_parent</td><td valign="top">:</td><td><div>/home/leo/projects/heroku_projects/annotatit</div></td></tr><tr><td style="font-weight:bold;vertical-align:top">db_sessions</td><td valign="top">:</td><td><div>set([])</div></td></tr><tr><td style="font-weight:bold;vertical-align:top">debugging</td><td valign="top">:</td><td><div>False</div></td></tr><tr><td style="font-weight:bold;vertical-align:top">gluon_parent</td><td valign="top">:</td><td><div>/home/leo/projects/heroku_projects/annotatit</div></td></tr><tr><td style="font-weight:bold;vertical-align:top">is_jython</td><td valign="top">:</td><td><div>False</div></td></tr><tr><td style="font-weight:bold;vertical-align:top">is_pypy</td><td valign="top">:</td><td><div>False</div></td></tr><tr><td style="font-weight:bold;vertical-align:top">local_hosts</td><td valign="top">:</td><td><div><table><tr><td><div>cotita</div></td></tr><tr><td><div>::ffff:127.0.0.1</div></td></tr><tr><td><div>::1</div></td></tr><tr><td><div>localhost</div></td></tr><tr><td><div>127.0.1.1</div></td></tr><tr><td><div>127.0.0.1</div></td></tr></table></div></td></tr><tr><td style="font-weight:bold;vertical-align:top">web2py_crontype</td><td valign="top">:</td><td><div>soft</div></td></tr><tr><td style="font-weight:bold;vertical-align:top">web2py_version</td><td valign="top">:</td><td><div>2.4.6-stable+timestamp.2013.04.06.17.37.38</div></td></tr></table></div></td></tr><tr><td style="font-weight:bold;vertical-align:top">is_https</td><td valign="top">:</td><td><div>False</div></td></tr><tr><td style="font-weight:bold;vertical-align:top">is_local</td><td valign="top">:</td><td><div>True</div></td></tr><tr><td style="font-weight:bold;vertical-align:top">is_restful</td><td valign="top">:</td><td><div>False</div></td></tr><tr><td style="font-weight:bold;vertical-align:top">now</td><td valign="top">:</td><td><div>datetime.datetime(2013, 6, 18, 12, 29, 52, 682877)</div></td></tr><tr><td style="font-weight:bold;vertical-align:top">post_vars</td><td valign="top">:</td><td><div><table></table></div></td></tr><tr><td style="font-weight:bold;vertical-align:top">url</td><td valign="top">:</td><td><div>/</div></td></tr><tr><td style="font-weight:bold;vertical-align:top">utcnow</td><td valign="top">:</td><td><div>datetime.datetime(2013, 6, 18, 10, 29, 52, 682935)</div></td></tr><tr><td style="font-weight:bold;vertical-align:top">uuid</td><td valign="top">:</td><td><div>AnnotatIt/127.0.0.1.2013-06-18.12-29-52.f8d8c64b-bf64-47ef-b853-55ae78f28974</div></td></tr><tr><td style="font-weight:bold;vertical-align:top">vars</td><td valign="top">:</td><td><div><table></table></div></td></tr><tr><td style="font-weight:bold;vertical-align:top">wsgi</td><td valign="top">:</td><td><div><table><tr><td style="font-weight:bold;vertical-align:top">environ</td><td valign="top">:</td><td><div><table><tr><td style="font-weight:bold;vertical-align:top">HTTP_ACCEPT</td><td valign="top">:</td><td><div>text/html,application/xhtml+xml,application/xml;q=0.9,*/*;q=0.8</div></td></tr><tr><td style="font-weight:bold;vertical-align:top">HTTP_ACCEPT_ENCODING</td><td valign="top">:</td><td><div>gzip,deflate,sdch</div></td></tr><tr><td style="font-weight:bold;vertical-align:top">HTTP_ACCEPT_LANGUAGE</td><td valign="top">:</td><td><div>en-US,en;q=0.8,fr;q=0.6,es;q=0.4</div></td></tr><tr><td style="font-weight:bold;vertical-align:top">HTTP_CACHE_CONTROL</td><td valign="top">:</td><td><div>max-age=0</div></td></tr><tr><td style="font-weight:bold;vertical-align:top">HTTP_CONNECTION</td><td valign="top">:</td><td><div>keep-alive</div></td></tr><tr><td style="font-weight:bold;vertical-align:top">HTTP_COOKIE</td><td valign="top">:</td><td><div>session_id_admin=127.0.0.1-5f14a4dc-f9fb-4d0e-8a04-45251c0640c9; session_id_annotatit=127.0.0.1-12c40481-d262-4f55-94d2-9005d561bf50</div></td></tr><tr><td style="font-weight:bold;vertical-align:top">HTTP_HOST</td><td valign="top">:</td><td><div>localhost:5000</div></td></tr><tr><td style="font-weight:bold;vertical-align:top">HTTP_REFERER</td><td valign="top">:</td><td><div>http://localhost:5000/user/login</div></td></tr><tr><td style="font-weight:bold;vertical-align:top">HTTP_USER_AGENT</td><td valign="top">:</td><td><div>Mozilla/5.0 (X11; Linux x86_64) AppleWebKit/537.36 (KHTML, like Gecko) Chrome/27.0.1453.110 Safari/537.36</div></td></tr><tr><td style="font-weight:bold;vertical-align:top">PATH_INFO</td><td valign="top">:</td><td><div>/</div></td></tr><tr><td style="font-weight:bold;vertical-align:top">QUERY_STRING</td><td valign="top">:</td><td><div></div></td></tr><tr><td style="font-weight:bold;vertical-align:top">RAW_URI</td><td valign="top">:</td><td><div>/</div></td></tr><tr><td style="font-weight:bold;vertical-align:top">REMOTE_ADDR</td><td valign="top">:</td><td><div>127.0.0.1</div></td></tr><tr><td style="font-weight:bold;vertical-align:top">REMOTE_PORT</td><td valign="top">:</td><td><div>44420</div></td></tr><tr><td style="font-weight:bold;vertical-align:top">REQUEST_METHOD</td><td valign="top">:</td><td><div>GET</div></td></tr><tr><td style="font-weight:bold;vertical-align:top">REQUEST_URI</td><td valign="top">:</td><td><div>/AnnotatIt/default/index</div></td></tr><tr><td style="font-weight:bold;vertical-align:top">SCRIPT_NAME</td><td valign="top">:</td><td><div></div></td></tr><tr><td style="font-weight:bold;vertical-align:top">SERVER_NAME</td><td valign="top">:</td><td><div>localhost</div></td></tr><tr><td style="font-weight:bold;vertical-align:top">SERVER_PORT</td><td valign="top">:</td><td><div>5000</div></td></tr><tr><td style="font-weight:bold;vertical-align:top">SERVER_PROTOCOL</td><td valign="top">:</td><td><div>HTTP/1.1</div></td></tr><tr><td style="font-weight:bold;vertical-align:top">SERVER_SOFTWARE</td><td valign="top">:</td><td><div>gunicorn/0.17.2</div></td></tr><tr><td style="font-weight:bold;vertical-align:top">WEB2PY_ORIGINAL_URI</td><td valign="top">:</td><td><div>/</div></td></tr><tr><td style="font-weight:bold;vertical-align:top">gunicorn.socket</td><td valign="top">:</td><td><div>&lt;socket._socketobject object at 0x241f280&gt;</div></td></tr><tr><td style="font-weight:bold;vertical-align:top">wsgi.errors</td><td valign="top">:</td><td><div>&lt;open file &#x27;&lt;stderr&gt;&#x27;, mode &#x27;w&#x27; at 0x7f7259d4d270&gt;</div></td></tr><tr><td style="font-weight:bold;vertical-align:top">wsgi.file_wrapper</td><td valign="top">:</td><td><div>&lt;class gunicorn.http.wsgi.FileWrapper at 0x1d47bb0&gt;</div></td></tr><tr><td style="font-weight:bold;vertical-align:top">wsgi.input</td><td valign="top">:</td><td><div>&lt;cStringIO.StringO object at 0x1dc9960&gt;</div></td></tr><tr><td style="font-weight:bold;vertical-align:top">wsgi.multiprocess</td><td valign="top">:</td><td><div>False</div></td></tr><tr><td style="font-weight:bold;vertical-align:top">wsgi.multithread</td><td valign="top">:</td><td><div>False</div></td></tr><tr><td style="font-weight:bold;vertical-align:top">wsgi.run_once</td><td valign="top">:</td><td><div>False</div></td></tr><tr><td style="font-weight:bold;vertical-align:top">wsgi.url_scheme</td><td valign="top">:</td><td><div>http</div></td></tr><tr><td style="font-weight:bold;vertical-align:top">wsgi.version</td><td valign="top">:</td><td><div>1</div></td></tr></table></div></td></tr></table></div></td></tr></table></div>'
tRp70
sS'frames'
p71
(lp72
(dp73
S'file'
p74
S'/home/leo/projects/heroku_projects/annotatit/gluon/restricted.py'
p75
sS'dump'
p76
(dp77
S'code'
p78
S'"left_sidebar_enabled= False\\nresponse.write(\'\\\\n\',...pt>\\\\n  \\\\n  \\\\n</body>\\\\n</html>\\\\n\\\\n\', escape=False)"'
p79
sS'layer'
p80
S"'/home/leo/projects/heroku_projects/annotatit/applications/AnnotatIt/views/default/index.html'"
p81
sS'global compile2'
p82
S'<function compile2>'
p83
sS'ccode'
p84
S'undefined'
p85
ssS'lnum'
p86
I211
sS'lines'
p87
(dp88
I206
S"    environment['__name__'] = '__restricted__'"
p89
sI207
S'    try:'
p90
sI208
S'        if isinstance(code, types.CodeType):'
p91
sI209
S'            ccode = code'
p92
sI210
S'        else:'
p93
sI211
S'            ccode = compile2(code, layer)'
p94
sI212
S'        exec ccode in environment'
p95
sI213
S'    except HTTP:'
p96
sI214
S'        raise'
p97
sI215
S'    except RestrictedError:'
p98
ssS'call'
p99
S'(code="left_sidebar_enabled= False\\nresponse.write(\'\\\\n\',...pt>\\\\n  \\\\n  \\\\n</body>\\\\n</html>\\\\n\\\\n\', escape=False)", environment={\'A\': <class \'gluon.html.A\'>, \'ANY_OF\': <class \'gluon.validators.ANY_OF\'>, \'APP_DOMAIN_NAME\': \'AnnotatIt.com\', \'APP_NAME\': \'AnnotatIt\', \'Auth\': <class \'gluon.tools.Auth\'>, \'B\': <class \'gluon.html.B\'>, \'BEAUTIFY\': <class \'gluon.html.BEAUTIFY\'>, \'BODY\': <class \'gluon.html.BODY\'>, \'BR\': <class \'gluon.html.BR\'>, \'BUTTON\': <class \'gluon.html.BUTTON\'>, ...}, layer=\'/home/leo/projects/heroku_projects/annotatit/applications/AnnotatIt/views/default/index.html\')'
p100
sS'func'
p101
S'restricted'
p102
sa(dp103
g74
S'/home/leo/projects/heroku_projects/annotatit/gluon/restricted.py'
p104
sg76
(dp105
S'builtincompile'
p106
S'<built-in function compile>'
p107
sS'code'
p108
S'"left_sidebar_enabled= False\\nresponse.write(\'\\\\n\',...pt>\\\\n  \\\\n  \\\\n</body>\\\\n</html>\\\\n\\\\n\', escape=False)"'
p109
sS'code.rstrip'
p110
S'<built-in method rstrip of str object>'
p111
sS').replace'
p112
g85
sS'layer'
p113
S"'/home/leo/projects/heroku_projects/annotatit/applications/AnnotatIt/views/default/index.html'"
p114
ssg86
I194
sg87
(dp115
I192
S"    The +'\\n' is necessary else compile fails when code ends in a comment."
p116
sI193
S'    """'
p117
sI194
S"    return compile(code.rstrip().replace('\\r\\n', '\\n') + '\\n', layer, 'exec')"
p118
sI195
S''
sI196
S''
sI197
S"def restricted(code, environment=None, layer='Unknown'):"
p119
sI198
S'    """'
p120
sI189
S''
sI190
S'def compile2(code, layer):'
p121
sI191
S'    """'
p122
ssg99
S'(code="left_sidebar_enabled= False\\nresponse.write(\'\\\\n\',...pt>\\\\n  \\\\n  \\\\n</body>\\\\n</html>\\\\n\\\\n\', escape=False)", layer=\'/home/leo/projects/heroku_projects/annotatit/applications/AnnotatIt/views/default/index.html\')'
p123
sg101
S'compile2'
p124
sasS'pyver'
p125
S'Python 2.7.3: /home/leo/projects/heroku_projects/annotatit/venv/bin/python (prefix: /home/leo/projects/heroku_projects/annotatit/venv)'
p126
sS'session'
p127
g69
(S's\xeb\x07\x00\x00<div><table><tr><td style="font-weight:bold;vertical-align:top">auth</td><td valign="top">:</td><td><div><table><tr><td style="font-weight:bold;vertical-align:top">expiration</td><td valign="top">:</td><td><div>3600</div></td></tr><tr><td style="font-weight:bold;vertical-align:top">hmac_key</td><td valign="top">:</td><td><div>634864ec-f35d-40c3-a9a4-6c4fd091a120</div></td></tr><tr><td style="font-weight:bold;vertical-align:top">last_visit</td><td valign="top">:</td><td><div>datetime.datetime(2013, 6, 18, 12, 26, 24, 714409)</div></td></tr><tr><td style="font-weight:bold;vertical-align:top">remember</td><td valign="top">:</td><td><div>False</div></td></tr><tr><td style="font-weight:bold;vertical-align:top">user</td><td valign="top">:</td><td><div><table><tr><td style="font-weight:bold;vertical-align:top">email</td><td valign="top">:</td><td><div>leo.m.rocha@gmail.com</div></td></tr><tr><td style="font-weight:bold;vertical-align:top">first_name</td><td valign="top">:</td><td><div>Leonardo</div></td></tr><tr><td style="font-weight:bold;vertical-align:top">id</td><td valign="top">:</td><td><div>1</div></td></tr><tr><td style="font-weight:bold;vertical-align:top">last_name</td><td valign="top">:</td><td><div>Rocha</div></td></tr><tr><td style="font-weight:bold;vertical-align:top">registration_id</td><td valign="top">:</td><td><div></div></td></tr><tr><td style="font-weight:bold;vertical-align:top">registration_key</td><td valign="top">:</td><td><div></div></td></tr><tr><td style="font-weight:bold;vertical-align:top">reset_password_key</td><td valign="top">:</td><td><div></div></td></tr></table></div></td></tr><tr><td style="font-weight:bold;vertical-align:top">user_groups</td><td valign="top">:</td><td><div><table><tr><td style="font-weight:bold;vertical-align:top">1</td><td valign="top">:</td><td><div>user_1</div></td></tr></table></div></td></tr></table></div></td></tr><tr><td style="font-weight:bold;vertical-align:top">flash</td><td valign="top">:</td><td><div>None</div></td></tr></table></div>'
tRp128
sS'etype'
p129
S"<type 'exceptions.SyntaxError'>"
p130
sS'date'
p131
S'Tue Jun 18 12:29:52 2013'
p132
sS'response'
p133
g69
(S'sh\x1a\x00\x00<div><table><tr><td style="font-weight:bold;vertical-align:top">body</td><td valign="top">:</td><td><div>&lt;cStringIO.StringO object at 0x1dc9110&gt;</div></td></tr><tr><td style="font-weight:bold;vertical-align:top">cookies</td><td valign="top">:</td><td><div><table><tr><td style="font-weight:bold;vertical-align:top">session_id_annotatit</td><td valign="top">:</td><td><div>127.0.0.1-12c40481-d262-4f55-94d2-9005d561bf50<table><tr><td style="font-weight:bold;vertical-align:top">comment</td><td valign="top">:</td><td><div></div></td></tr><tr><td style="font-weight:bold;vertical-align:top">domain</td><td valign="top">:</td><td><div></div></td></tr><tr><td style="font-weight:bold;vertical-align:top">expires</td><td valign="top">:</td><td><div></div></td></tr><tr><td style="font-weight:bold;vertical-align:top">httponly</td><td valign="top">:</td><td><div></div></td></tr><tr><td style="font-weight:bold;vertical-align:top">max-age</td><td valign="top">:</td><td><div></div></td></tr><tr><td style="font-weight:bold;vertical-align:top">path</td><td valign="top">:</td><td><div>/</div></td></tr><tr><td style="font-weight:bold;vertical-align:top">secure</td><td valign="top">:</td><td><div></div></td></tr><tr><td style="font-weight:bold;vertical-align:top">version</td><td valign="top">:</td><td><div></div></td></tr></table></div></td></tr></table></div></td></tr><tr><td style="font-weight:bold;vertical-align:top">delimiters</td><td valign="top">:</td><td><div><table><tr><td><div>{{</div></td></tr><tr><td><div>}}</div></td></tr></table></div></td></tr><tr><td style="font-weight:bold;vertical-align:top">files</td><td valign="top">:</td><td><div><table></table></div></td></tr><tr><td style="font-weight:bold;vertical-align:top">flash</td><td valign="top">:</td><td><div></div></td></tr><tr><td style="font-weight:bold;vertical-align:top">generic_patterns</td><td valign="top">:</td><td><div><table><tr><td><div>*</div></td></tr></table></div></td></tr><tr><td style="font-weight:bold;vertical-align:top">google_analytics_id</td><td valign="top">:</td><td><div>None</div></td></tr><tr><td style="font-weight:bold;vertical-align:top">headers</td><td valign="top">:</td><td><div><table><tr><td style="font-weight:bold;vertical-align:top">X-Powered-By</td><td valign="top">:</td><td><div>web2py</div></td></tr></table></div></td></tr><tr><td style="font-weight:bold;vertical-align:top">logo</td><td valign="top">:</td><td><div><a class="brand" href="http://www.annotatit.com/"><b>AnnotatIt</b>&trade;&nbsp;</a></div></td></tr><tr><td style="font-weight:bold;vertical-align:top">logo_img</td><td valign="top">:</td><td><div><img alt="AnnotatIt" src="/AnnotatIt/static/images/annotatit_pencil_200.png" /></div></td></tr><tr><td style="font-weight:bold;vertical-align:top">menu</td><td valign="top">:</td><td><div><table><tr><td><div><table><tr><td><div>Media</div></td></tr><tr><td><div>False</div></td></tr><tr><td><div>/videos</div></td></tr><tr><td><div><table><tr><td><div><table><tr><td><div>My media</div></td></tr><tr><td><div>False</div></td></tr><tr><td><div>/my_videos</div></td></tr></table></div></td></tr><tr><td><div><table><tr><td><div>Add media</div></td></tr><tr><td><div>False</div></td></tr><tr><td><div>/upload_video</div></td></tr></table></div></td></tr></table></div></td></tr></table></div></td></tr></table></div></td></tr><tr><td style="font-weight:bold;vertical-align:top">meta</td><td valign="top">:</td><td><div><table><tr><td style="font-weight:bold;vertical-align:top">author</td><td valign="top">:</td><td><div>Leonardo M. Rocha &lt;leo@annotatit.com&gt;</div></td></tr><tr><td style="font-weight:bold;vertical-align:top">description</td><td valign="top">:</td><td><div>Synchronized Video Annotation</div></td></tr><tr><td style="font-weight:bold;vertical-align:top">generator</td><td valign="top">:</td><td><div>Leonardo M. Rocha</div></td></tr><tr><td style="font-weight:bold;vertical-align:top">keywords</td><td valign="top">:</td><td><div>personal development, leadership, spokesman, video, audio, annotation, social annotation, video annotation, video notes, music notes, media notes, music annotation, music education, online music education, online music video tagging, video analysis, music analysis, media analysis, sound analysis</div></td></tr></table></div></td></tr><tr><td style="font-weight:bold;vertical-align:top">models_to_run</td><td valign="top">:</td><td><div><table><tr><td><div>^\\w+\\.py$</div></td></tr><tr><td><div>^default/\\w+\\.py$</div></td></tr><tr><td><div>^default/index/\\w+\\.py$</div></td></tr></table></div></td></tr><tr><td style="font-weight:bold;vertical-align:top">postprocessing</td><td valign="top">:</td><td><div><table></table></div></td></tr><tr><td style="font-weight:bold;vertical-align:top">session_cookie_expires</td><td valign="top">:</td><td><div>None</div></td></tr><tr><td style="font-weight:bold;vertical-align:top">session_data_name</td><td valign="top">:</td><td><div>session_data_annotatit</div></td></tr><tr><td style="font-weight:bold;vertical-align:top">session_file</td><td valign="top">:</td><td><div>&lt;open file &#x27;/home/leo/projects/heroku_projects/annotatit/applications/AnnotatIt/sessions/127.0.0.1-12c40481-d262-4f55-94d2-9005d561bf50&#x27;, mode &#x27;rb+&#x27; at 0x230cae0&gt;</div></td></tr><tr><td style="font-weight:bold;vertical-align:top">session_filename</td><td valign="top">:</td><td><div>/home/leo/projects/heroku_projects/annotatit/applications/AnnotatIt/sessions/127.0.0.1-12c40481-d262-4f55-94d2-9005d561bf50</div></td></tr><tr><td style="font-weight:bold;vertical-align:top">session_id</td><td valign="top">:</td><td><div>127.0.0.1-12c40481-d262-4f55-94d2-9005d561bf50</div></td></tr><tr><td style="font-weight:bold;vertical-align:top">session_id_name</td><td valign="top">:</td><td><div>session_id_annotatit</div></td></tr><tr><td style="font-weight:bold;vertical-align:top">session_locked</td><td valign="top">:</td><td><div>True</div></td></tr><tr><td style="font-weight:bold;vertical-align:top">session_new</td><td valign="top">:</td><td><div>False</div></td></tr><tr><td style="font-weight:bold;vertical-align:top">session_storage_type</td><td valign="top">:</td><td><div>file</div></td></tr><tr><td style="font-weight:bold;vertical-align:top">status</td><td valign="top">:</td><td><div>200</div></td></tr><tr><td style="font-weight:bold;vertical-align:top">subtitle</td><td valign="top">:</td><td><div>Collaborative Synchronized Media Annotations made Easy</div></td></tr><tr><td style="font-weight:bold;vertical-align:top">title</td><td valign="top">:</td><td><div>Annotatit</div></td></tr><tr><td style="font-weight:bold;vertical-align:top">view</td><td valign="top">:</td><td><div>default/index.html</div></td></tr></table></div>'
tRp134
sS'locals'
p135
(dp136
g4
S"'/home/leo/projects/heroku_projects/annotatit/applications/AnnotatIt/views/default/index.html'"
p137
sg6
S'"left_sidebar_enabled= False\\nresponse.write(\'\\\\n\',...pt>\\\\n  \\\\n  \\\\n</body>\\\\n</html>\\\\n\\\\n\', escape=False)"'
p138
sssS'traceback'
p139
S'Traceback (most recent call last):\n  File "/home/leo/projects/heroku_projects/annotatit/gluon/restricted.py", line 211, in restricted\n    ccode = compile2(code, layer)\n  File "/home/leo/projects/heroku_projects/annotatit/gluon/restricted.py", line 194, in compile2\n    return compile(code.rstrip().replace(\'\\r\\n\', \'\\n\') + \'\\n\', layer, \'exec\')\n  File "/home/leo/projects/heroku_projects/annotatit/applications/AnnotatIt/views/default/index.html", line 77\n    if not auth.user\n                   ^\nSyntaxError: invalid syntax\n'
p140
s.