(dp1
S'output'
p2
S"<type 'exceptions.AttributeError'> 'Row' object has no attribute 'youtube_video_id'"
p3
sS'layer'
p4
S'/home/leo/projects/heroku_projects/annotatit/applications/AnnotatIt/views/default/view_video.html'
p5
sS'code'
p6
S'left_sidebar_enabled= False\nresponse.write(\'\\n\', escape=False)\nright_sidebar_enabled=True\nresponse.write(\'\\n\\n\', escape=False)\nresponse.write(\'<!--[if HTML5]><![endif]-->\\n<!DOCTYPE html>\\n<!-- paulirish.com/2008/conditional-stylesheets-vs-css-hacks-answer-neither/ -->\\n<!--[if lt IE 7]><html class="ie ie6 ie-lte9 ie-lte8 ie-lte7 no-js" lang="\', escape=False)\nresponse.write(T.accepted_language or \'en\')\nresponse.write(\'"> <![endif]-->\\n<!--[if IE 7]><html class="ie ie7 ie-lte9 ie-lte8 ie-lte7 no-js" lang="\', escape=False)\nresponse.write(T.accepted_language or \'en\')\nresponse.write(\'"> <![endif]-->\\n<!--[if IE 8]><html class="ie ie8 ie-lte9 ie-lte8 no-js" lang="\', escape=False)\nresponse.write(T.accepted_language or \'en\')\nresponse.write(\'"> <![endif]-->\\n<!--[if IE 9]><html class="ie9 ie-lte9 no-js" lang="\', escape=False)\nresponse.write(T.accepted_language or \'en\')\nresponse.write(\'"> <![endif]-->\\n<!--[if (gt IE 9)|!(IE)]><!--> <html class="no-js" lang="\', escape=False)\nresponse.write(T.accepted_language or \'en\')\nresponse.write(\'"> <!--<![endif]-->\\n<head>\\n<title>\', escape=False)\nresponse.write(response.title or request.application)\nresponse.write(\'</title>\\n  <!--[if !HTML5]>\\n      <meta http-equiv="X-UA-Compatible" content="IE=edge\', escape=False)\nresponse.write(not request.is_local and \',chrome=1\' or \'\')\nresponse.write(\'">\\n  <![endif]-->\\n  <!-- www.phpied.com/conditional-comments-block-downloads/ -->\\n  <!-- Always force latest IE rendering engine\\n       (even in intranet) & Chrome Frame\\n       Remove this if you use the .htaccess -->\\n\\t   \\n  <meta charset="utf-8" />\\n\\n  <!-- http://dev.w3.org/html5/markup/meta.name.html -->\\n  <meta name="application-name" content="\', escape=False)\nresponse.write(request.application)\nresponse.write(\'" />\\n\\n  <!-- Speaking of Google, don\\\'t forget to set your site up:\\n       http://google.com/webmasters -->\\n  <meta name="google-site-verification" content="" />\\n\\n  <!--  Mobile Viewport Fix\\n        j.mp/mobileviewport & davidbcalhoun.com/2010/viewport-metatag\\n        device-width: Occupy full width of the screen in its current orientation\\n        initial-scale = 1.0 retains dimensions instead of zooming out if page height > device height\\n        user-scalable = yes allows the user to zoom in -->\\n  <meta name="viewport" content="width=device-width, initial-scale=1.0" />\\n\\n  <link rel="shortcut icon" href="\', escape=False)\nresponse.write(URL(\'static\',\'images/favicon.ico\'))\nresponse.write(\'" type="image/x-icon">\\n  <link rel="apple-touch-icon" href="\', escape=False)\nresponse.write(URL(\'static\',\'images/favicon.png\'))\nresponse.write(\'">\\n\\n  <!-- All JavaScript at the bottom, except for Modernizr which enables\\n       HTML5 elements & feature detects -->\\n  <script src="\', escape=False)\nresponse.write(URL(\'static\',\'js/modernizr.custom.js\'))\nresponse.write(\'"></script>\\n\\n  <!-- include stylesheets -->\\n  \', escape=False)\nresponse.files.append(URL(\'static\',\'css/web2py.css\'))\nresponse.files.append(URL(\'static\',\'css/bootstrap.min.css\'))\nresponse.files.append(URL(\'static\',\'css/bootstrap-responsive.min.css\'))\nresponse.files.append(URL(\'static\',\'css/web2py_bootstrap.css\'))\nresponse.write(\'\\n\\n  \', escape=False)\nresponse.write(\'<script type="text/javascript"><!--\\n    // These variables are used by the web2py_ajax_init function in web2py_ajax.js (which is loaded below).\\n    var w2p_ajax_confirm_message = "\', escape=False)\nresponse.write(T(\'Are you sure you want to delete this object?\'))\nresponse.write(\'";\\n    var w2p_ajax_date_format = "\', escape=False)\nresponse.write(T(\'%Y-%m-%d\'))\nresponse.write(\'";\\n    var w2p_ajax_datetime_format = "\', escape=False)\nresponse.write(T(\'%Y-%m-%d %H:%M:%S\'))\nresponse.write(\'";\\n    var ajax_error_500 = \\\'\', escape=False)\nresponse.write(XML(T(\'An error occured, please %s the page\') % A(T(\'reload\'), _href=URL(args=request.args, vars=request.vars))))\nresponse.write("\'\\n    //--></script>\\n", escape=False)\nresponse.files.insert(0,URL(\'static\',\'js/jquery.js\'))\nresponse.files.insert(1,URL(\'static\',\'css/calendar.css\'))\nresponse.files.insert(2,URL(\'static\',\'js/calendar.js\'))\nresponse.files.insert(3,URL(\'static\',\'js/web2py.js\'))\nresponse.include_meta()\nresponse.include_files()\nresponse.write(\'\\n\', escape=False)\nresponse.write(\'\\n\\n  \', escape=False)\n# using sidebars need to know what sidebar you want to use\nleft_sidebar_enabled = globals().get(\'left_sidebar_enabled\',False)\nright_sidebar_enabled = globals().get(\'right_sidebar_enabled\',False)\nmiddle_columns = {0:\'span12\',1:\'span9\',2:\'span6\'}[\n(left_sidebar_enabled and 1 or 0)+(right_sidebar_enabled and 1 or 0)]\nresponse.write(\'\\n\\n  <!-- uncomment here to load jquery-ui\\n       <link rel="stylesheet" href="http://ajax.googleapis.com/ajax/libs/jqueryui/1.8.16/themes/base/jquery-ui.css" type="text/css" media="all" />\\n       <script src="http://ajax.googleapis.com/ajax/libs/jqueryui/1.8.16/jquery-ui.min.js" type="text/javascript"></script>\\n       uncomment to load jquery-ui //-->\\n  <noscript><link href="\', escape=False)\nresponse.write(URL(\'static\', \'css/web2py_bootstrap_nojs.css\'))\nresponse.write(\'" rel="stylesheet" type="text/css" /></noscript>\\n  \', escape=False)\nresponse.write(\'\\n<!-- <script type="text/javascript" src="https://www.google.com/jsapi"></script> -->\\n<script type="text/javascript" src="http://ajax.googleapis.com/ajax/libs/swfobject/2.2/swfobject.js"></script>\\n<script type="text/javascript">\\n    //google.load("search", "1");\\n    //google.load("jquery", "1.4.2");\\n    //google.load("jqueryui", "1.7.2");\\n    //adding exist function to jQuery\\n    //jQuery.fn.exists = function(){return jQuery(this).length>0;}\\n</script>\\n<script src="http://cdnjs.cloudflare.com/ajax/libs/ocanvas/2.4.0/ocanvas.min.js"></script>\\n\\n<!-- <script src="\', escape=False)\nresponse.write(URL(\'static\',\'js/ocanvas-2.4.0.min.js\'))\nresponse.write(\'"></script>  my own version-->\\n\', escape=False)\nresponse.write(\'\\n</head>\\n\\n<body>\\n  <!-- Navbar ================================================== -->\\n  <div class="navbar navbar-inverse navbar-fixed-top">\\n    <div class="flash">\', escape=False)\nresponse.write(response.flash or \'\')\nresponse.write(\'</div>\\n    <div class="navbar-inner">\\n      <div class="container">\\n        <!-- the next tag is necessary for bootstrap menus, do not remove -->\\n        <button type="button" class="btn btn-navbar" data-toggle="collapse" data-target=".nav-collapse">\\n          <span class="icon-bar"></span>\\n          <span class="icon-bar"></span>\\n          <span class="icon-bar"></span>\\n        </button>\\n\\t\', escape=False)\nresponse.write(response.logo or \'\')\nresponse.write(\'\\n        <ul id="navbar" class="nav pull-right">\', escape=False)\nresponse.write(\'auth\' in globals() and auth.navbar(mode="dropdown") or \'\')\nresponse.write(\'</ul>\\n        <div class="nav-collapse">\\n          \', escape=False)\nis_mobile=request.user_agent().is_mobile\nresponse.write(\'\\n          \', escape=False)\nif response.menu:\n    response.write(\'\\n          \', escape=False)\n    response.write(MENU(response.menu, _class=\'mobile-menu nav\' if is_mobile else \'nav\',mobile=is_mobile,li_class=\'dropdown\',ul_class=\'dropdown-menu\'))\n    response.write(\'\\n          \', escape=False)\n    pass\nresponse.write(\'\\n        </div><!--/.nav-collapse -->\\n      </div>\\n    </div>\\n  </div><!--/top navbar -->\\n\\n  <div class="container">\\n    <!-- Masthead ================================================== -->\\n    \', escape=False)\nif response.title:\n    response.write(\'\\n    <header class="mastheader row" id="header">\\n        <div class="span12">\\n            <div class="page-header">\\n                <h1>\\n                    \', escape=False)\n    response.write(response.title)\n    response.write(\'\\n                    <small>\', escape=False)\n    response.write(response.subtitle or \'\')\n    response.write(\'</small>\\n                </h1>\\n            </div>\\n        </div>\\n    </header>\\n    \', escape=False)\n    pass\nresponse.write(\'\\n\\n    <section id="main" class="main row">\\n        \', escape=False)\nif left_sidebar_enabled:\n    response.write(\'\\n        <div class="span3 left-sidebar">\\n            \', escape=False)\n    response.write(\'\\n            <h3>Left Sidebar</h3>\\n            <p></p>\\n            \', escape=False)\n    response.write(\'\\n        </div>\\n        \', escape=False)\n    pass\nresponse.write(\'\\n\\n        <div class="\', escape=False)\nresponse.write(middle_columns)\nresponse.write(\'">\\n            \', escape=False)\nresponse.write(\'\\n<div class="videoDiv" id="videoDiv" >\\n    <object class="ytPlayer" id="ytPlayer" > </object>\\n</div>\\n<hr/>\\n<div class="notes_box" id="notes_box" style="{ border:1px solid; border-radius:5px;}" >\\n    \\n    <div id="canvas_time_display" > </div>\\n    <div id="canvas_text_display"> </div>\\n    <div class="canvas_div" id="canvas_div"   >\\n        <!--Here canvas will be dynamically added when needed -->\\n    </div>\\n</div>\\n<hr/>\\n<div id="advices">\\n\', escape=False)\ntry:\n    response.write(\'\\n    <ul>\\n    \', escape=False)\n    for a in advices:\n        response.write(\'\\n        <li>\\n        By <a href="\', escape=False)\n        response.write(URL(\'videos_by\', args=a.annotator_id))\n        response.write(\'" > \', escape=False)\n        response.write(a.annotator_id)\n        response.write(\' </a>\\n        <p> \', escape=False)\n        response.write(a.advice_text)\n        response.write(\'</p>\\n        </li>\\n    \', escape=False)\n        pass\n    response.write(\'\\n\\n    </ul>\\n\', escape=False)\nexcept:\n    response.write(\'\\n    <!--Problem with displaying advice list-->\\n\', escape=False)\n    pass\nresponse.write(\'\\n</div>\\n\', escape=False)\nresponse.write(\'\\n        </div>\\n\\n        \', escape=False)\nif right_sidebar_enabled:\n    response.write(\'\\n        <div class="span3">\\n            \', escape=False)\n    response.write(\'\\n\\n    \', escape=False)\n    response.write(\'\\n    <hr/>\\n    <h4> Observations </h4>\\n    <hr/>\\n    You can create and change the names of the observations\\n    <!-- TODO add here the retro timer -->\\n    <ul>\\n        \', escape=False)\n    icount = 0\n    response.write(\'\\n        \', escape=False)\n    for st in suggested_tags:\n        response.write(\'\\n            <li>\\n                <input id="tag_item_\', escape=False)\n        response.write(icount)\n        response.write(\'"  value="\', escape=False)\n        response.write(st[\'name\'])\n        response.write(\'" /> <br/>\\n                \\n                \', escape=False)\n        for tag in st[\'fields\']:\n            response.write(\'\\n                 <img id="\', escape=False)\n            response.write(tag)\n            response.write(\'" onclick="return on_tag(\\\'tag_item_\', escape=False)\n            response.write(icount)\n            response.write("\', \'", escape=False)\n            response.write(tag)\n            response.write(\'\\\')" src="\', escape=False)\n            response.write(URL(\'static\',\'images/\'+tag+\'_icon.png\'))\n            response.write(\'" width="30" style="cursor:pointer;"/>\\n                \', escape=False)\n            pass\n        response.write(\'\\n                \', escape=False)\n        icount+=1\n        response.write(\'\\n                <div >time delay:  \\n                    <b><span id="decrease_delay_\', escape=False)\n        response.write(st[\'name\'])\n        response.write(\'" onclick="return  change_time_delay(-1,\\\'\', escape=False)\n        response.write(st[\'name\'])\n        response.write(\'\\\');" style="cursor:pointer;">-</span></b>\\n                    | <span id="time_delay_\', escape=False)\n        response.write(st[\'name\'])\n        response.write(\'" > -5  </span> seg |\\n                    <b><span id="increase_delay_\', escape=False)\n        response.write(st[\'name\'])\n        response.write(\'" onclick="return  change_time_delay(1,\\\'\', escape=False)\n        response.write(st[\'name\'])\n        response.write(\'\\\');" style="cursor:pointer;">+</span></b>\\n                </div>\\n            </li>\\n        \', escape=False)\n        pass\n    response.write(\'\\n    </ul>\\n    <br/>\\n    Click to make an observation!\\n    <div id="tag_response"></div>\\n    \\n    <hr/>\\n    <h4> Synchronized Comments </h4>\\n    <hr/>\\n    <div id="annotation_div">\\n    \\n    <form id="annotation_form" onsubmit= "return annotation_submit()" enctype="multipart/form-data" >\\n        <input id="video_id" name="video_id" readonly="readonly" value="\', escape=False)\n    response.write(video.id)\n    response.write(\'" type="hidden"/> \\n        <input id="video_time" name="video_time"     value="0" type="hidden" /> \\n        <!--Comment: -->\\n        <input id="comment" name="comment"  placeholder="Click here to comment (max 150 characters)" \\n            onclick="on_comment(); return false;" />\\n        <input type="submit" id="comment_button" name="Comment" value="Post"/>\\n        <!-- tagging - set automatically by clicks-->\\n        <input id="evaluation" name="evaluation" value="" type="hidden" /> \\n        <input id="tag_type_name" name="tag_type_name" value="" type="hidden" /> \\n        <!-- end tagging-->\\n    </form>\\n    <div >Comments time delay:  \\n                    <b><span id="decrease_delay_comments" onclick="return  change_time_delay(-1,\\\'comments\\\');" style="cursor:pointer;">-</span></b>\\n                    | <span id="time_delay_comments" > -5  </span> seg |\\n                    <b><span id="increase_delay_comments" onclick="return  change_time_delay(1,\\\'comments\\\');" style="cursor:pointer;">+</span></b>\\n    </div>\\n    <div id="annotation_response"></div>\\n    \\n    \\n    </div>\\n    <hr/>\\n    <h4> Advice </h4>\\n    <hr/>\\n    <div id="advice_div">\\n    \\n    <form id="advice_form" onsubmit= "return advice_submit()" enctype="multipart/form-data" >\\n        <input id="annotation_video_id" name="annotation_video_id" readonly="readonly" value="\', escape=False)\n    response.write(video.id)\n    response.write(\'" type="hidden"/> \\n        <!--Advice: -->\\n        <!--<input id="advice" name="advice"  style="height:50px;"\\n            placeholder="Click here to make an advice (max 512 characters)" type="text" />-->\\n        <textarea rows="10" cols="30" id="advice_text" name="advice_text" \\n            placeholder="Click here to make an advice (max 512 characters)" ></textarea> \\n        <input type="submit" id="advice_button" name="Advice" value="Post"/>\\n    </form>\\n    <div id="advice_response"></div>\\n    \\n\\n    \', escape=False)\n    response.write(\'\\n\\n\', escape=False)\n    response.write(\'\\n        </div>\\n        \', escape=False)\n    pass\nresponse.write(\'\\n    </section><!--/main-->\\n\\n    <!-- Footer ================================================== -->\\n    <div class="row">\\n        <footer class="footer span12" id="footer">\\n            <div class="footer-content">\\n                \', escape=False)\nresponse.write(\' <!-- this is default footer -->\\n                <div class="copyright pull-left">\', escape=False)\nresponse.write(T(\'Copyright\'))\nresponse.write(\' &#169; \', escape=False)\nresponse.write(request.now.year)\nresponse.write(\'</div>\\n                <div id="poweredBy" class="pull-right">\\n                    \', escape=False)\nresponse.write(T(\'Powered by\'))\nresponse.write(\'\\n                    <a href="http://www.web2py.com/">web2py</a>\\n                </div>\\n                \', escape=False)\nresponse.write(\'\\n            </div>\\n        </footer>\\n    </div>\\n\\n  </div> <!-- /container -->\\n\\n  <!-- The javascript =============================================\\n       (Placed at the end of the document so the pages load faster) -->\\n  <script src="\', escape=False)\nresponse.write(URL(\'static\',\'js/bootstrap.min.js\'))\nresponse.write(\'"></script>\\n  <script src="\', escape=False)\nresponse.write(URL(\'static\',\'js/web2py_bootstrap.js\'))\nresponse.write(\'"></script>\\n  <!--[if lt IE 7 ]>\\n      <script src="\', escape=False)\nresponse.write(URL(\'static\',\'js/dd_belatedpng.js\'))\nresponse.write(\'"></script>\\n      <script> DD_belatedPNG.fix(\\\'img, .png_bg\\\'); //fix any <img> or .png_bg background-images </script>\\n      <![endif]-->\\n  \', escape=False)\nresponse.write(\'\\n\\n<!-- Load ocanvas -->\\n\\n<script type="text/javascript">\\nvar current_time = 0;\\n\\n\\n/*\\n * Polling the player for information\\n */\\n\\n// Update a particular HTML element with a new value\\nfunction updateHTML(elmId, value) {\\n  document.getElementById(elmId).innerHTML = value;\\n}\\n\\nfunction updateValue(elmId, val) {\\n  document.getElementById(elmId).value = val;\\n}\\n\\nfunction updateTime(elmId, val) {\\n    val = Number(val);\\n    current_time = val;\\n    var hh = Math.floor(val/3600);\\n    var mm = Math.floor(val/60);\\n    var ss = val%60; \\n    tval = hh.toString()+\\\':\\\'+mm.toString()+\\\':\\\'+ss.toString()\\n    document.getElementById(elmId).value = tval;\\n}\\n// This function is called when an error is thrown by the player\\nfunction onPlayerError(errorCode) {\\n  alert("An error occured of type:" + errorCode);\\n  console.log("An error occured of type:" + errorCode);\\n}\\n\\n// This function is called when the player changes state\\nfunction onPlayerStateChange(newState) {\\n  updateHTML("playerState", newState);\\n}\\n\\n// Display information about the current state of the player\\nfunction updatePlayerInfo() {\\n  // Also check that at least one function exists since when IE unloads the\\n  // page, it will destroy the SWF before clearing the interval.\\n  if(ytplayer && ytplayer.getDuration) {\\n    updateTime("video_time", ytplayer.getCurrentTime());\\n    updateInteractiveComments(ytplayer.getCurrentTime());\\n  }\\n}\\n\\n// This function is automatically called by the player once it loads\\nfunction onYouTubePlayerReady(playerId) {\\n  //console.log("Player loaded and ready, setting callbacks");\\n  ytplayer = document.getElementById("ytPlayer");\\n  // This causes the updatePlayerInfo function to be called every 50ms to\\n  // get fresh data from the player\\n  setInterval(updatePlayerInfo, 50);\\n  updatePlayerInfo();\\n  //ytplayer.addEventListener("onStateChange", "onPlayerStateChange");\\n  ytplayer.addEventListener("onError", "onPlayerError");\\n  //need to start playing to get video metadata.\\n  //NEED video metadata to get duration of the video for calculating the positions of tags and comments!!\\n  ytplayer.mute();\\n  // play video to get meta data\\n  ytplayer.playVideo();\\n  yt_get_duration = function(){\\n        // if duration is available\\n        if (ytplayer.getDuration() > 0) {\\n            // pause video\\n            ytplayer.pauseVideo();\\n            // unmute\\n            ytplayer.unMute();\\n            // save duration\\n            return ytplayer.getDuration();\\n\\n        }\\n        // else keep trying\\n        else {\\n            setTimeout(yt_get_duration[index], 150)\\n        }\\n    }\\n  var duration = yt_get_duration();\\n  //now init the visualization\\n  //init_canvas(); //deprecated\\n  init_interactive_canvas();\\n}\\n\\nfunction loadPlayer(){\\n  //console.log("Loading Player");\\n  // The video to load\\n  var videoID = "\', escape=False)\nresponse.write(video.youtube_video_id)\nresponse.write(\'"; \\n  // Lets Flash from another domain call JavaScript\\n  var params = { allowScriptAccess: "always" };\\n  // The element id of the Flash embed\\n  var atts = { id: "ytPlayer" };\\n  // All of the magic handled by SWFObject (http://code.google.com/p/swfobject/)\\n  swfobject.embedSWF("http://www.youtube.com/v/" + videoID + \\n                     "?version=3&enablejsapi=1&playerapiid=player1", \\n                     "videoDiv", "720", "480", "9", null, null, params, atts);\\n}\\n\\n\\nfunction setVideoTime(time){\\n    //console.log("setting time");    \\n    //console.log(time);\\n    //this parses the string hh:mm:ss into values and \\n    var t=time.split(":");\\n    ntime=Number(t[0])*3600+Number(t[1])*60+Number(t[2]);\\n    ytplayer.seekTo(ntime, true);\\n}\\n\\n////////////////////////////////////////////////////////////////////////////////\\n//// On FORMS and tags actions\\n////////////////////////////////////////////////////////////////////////////////\\nfunction annotation_submit(){\\n    //console.log("summiting annotation");\\n    ajax("\', escape=False)\nresponse.write(URL(\'post_annotation\',args=request.args(0)))\nresponse.write(\'",\\n           ["video_id","video_time","comment"], \\\'annotation_response\\\');\\n    var time_delay = Number(document.getElementById("time_delay_comments").innerHTML);\\n    //console.log("comment delay = "+time_delay);\\n    var json_response = new Object();\\n    ntime=current_time + time_delay;\\n    if (ntime<0){\\n        ntime = 0;\\n    }\\n    var hh = Math.floor(ntime/3600);\\n    var mm = Math.floor(ntime/60);\\n    var ss = ntime%60; \\n    tval = hh.toString()+\\\':\\\'+mm.toString()+\\\':\\\'+ss.toString()\\n    json_response.video_time = tval; //\\n    if (json_response.video_time<0){\\n        json_response.video_time = 0;\\n    }\\n    json_response.comment = document.getElementById("comment").value;\\n    json_response.video_id = document.getElementById("video_id").value;\\n    canvas_draw_comment( json_response);\\n    return false;\\n}\\n\\n\\nfunction advice_submit(){\\n    console.log("summiting advice");\\n    ajax("\', escape=False)\nresponse.write(URL(\'post_advice\',args=request.args(0)))\nresponse.write(\'",\\n           ["annotation_video_id", "advice_text"], \\\'advice_response\\\');\\n    //add advice to advice list TODO\\n    return false;\\n}\\n\\nfunction pause_video(){\\n    if(ytplayer){\\n        ytplayer.pauseVideo();\\n    }\\n}\\n\\nfunction on_comment(){\\n    pause_video();\\n    //set_comment_time();\\n    return false;\\n}\\n\\nfunction on_tag(tag_type, evaluation){\\n    //set tag type name\\n    var tag_name = document.getElementById(tag_type).value; //innerHTML;\\n    //console.log("creating tag: "+ tag_name);\\n    document.getElementById("tag_type_name").value = tag_name;\\n    //set evaluation\\n    document.getElementById("evaluation").value = evaluation;\\n    //time = document.getElementById("video_time");\\n    //post_args = []\\n    ajax("\', escape=False)\nresponse.write(URL(\'post_tag\',args=""))\nresponse.write(\'",\\n           ["tag_type_name", "video_id","video_time","evaluation"], \\\'tag_response\\\');\\n    //console.log(tag_name);\\n    //console.log(document.getElementById("time_delay_"+tag_name));\\n    var time_delay = Number(document.getElementById("time_delay_"+tag_name).innerHTML);\\n    //console.log("tag delay = "+time_delay);\\n    var json_response = new Object();\\n    ntime=current_time + time_delay;\\n    if (ntime<0){\\n        ntime = 0;\\n    }\\n    var hh = Math.floor(ntime/3600);\\n    var mm = Math.floor(ntime/60);\\n    var ss = ntime%60; \\n    tval = hh.toString()+\\\':\\\'+mm.toString()+\\\':\\\'+ss.toString()\\n    json_response.video_time = tval; //\\n    //console.log("tag time = "+document.getElementById("video_time").value);\\n    //console.log("tag json_response.video_time = "+json_response.video_time);\\n    if (json_response.video_time<0){\\n        json_response.video_time = 0;\\n    }\\n    json_response.tag_type_name = document.getElementById("tag_type_name").value;\\n    json_response.evaluation = document.getElementById("evaluation").value;\\n    json_response.video_id = document.getElementById("video_id").value;\\n    canvas_draw_tag( json_response);\\n                   \\n    return false;\\n}\\n\\n////////////////////////////////////////////////////////////////////////////////\\n//// NEW canvas things -- more interactive\\n////////////////////////////////////////////////////////////////////////////////\\n\\n//Vars\\n///////////////////////\\n\\nvar all_comments = new Array();\\nvar all_tags = new Array();\\nvar all_canvas = new Object(); // {};\\nvar interactive_canvas_div = $(\\\'#canvas_div\\\');\\n//Functions\\n////////////////////////\\nfunction add_canvas(canvas_name, field_name){\\n    //find where to put the canvas\\n    // add the canvas object to DOM\\n    var canvas_text = \\\'<canvas id="\\\'+canvas_name+\\\'" width="720" height="30"></canvas>\\\';\\n    //console.log(\\\'canvas_text = \\\'+canvas_text);\\n    interactive_canvas_div.append("<div ><h4>"+field_name+"</h4> </div>");\\n    /*del_tag =  "<div id=\\\'"+field_name+"_del_tag_option\\\' > </div>"\\n    tag_options = ""\\n    //change_tag = "<div id=\\\'"+field_name+"_change_tag_option\\\' > "+ tag_options+"  </div>"\\n    time_display = "<div id=\\\'"+field_name+"_time_display\\\' > </div>"\\n    menu_options = del_tag + change_tag\\n    canvas_menu = "<div id=\\\'canvas_menu_"+field_name+"\\\' > "+ menu_ options +" </div>"\\n    */\\n    interactive_canvas_div.append();\\n    interactive_canvas_div.append(canvas_text);\\n    //console.log(\\\'init oCanvas for this instance\\\');\\n    // init ocanvas \\n    var canvas = oCanvas.create({\\n\\t    canvas: "#"+canvas_name,\\n\\t    background: "#EEF",\\n    });\\n    //console.log(\\\'adding to canvas dict\\\');\\n    all_canvas[canvas_name] = canvas;\\n    //console.log(\\\'DONE\\\');\\n    // done\\n}\\n\\nfunction canvas_draw_tag( tag_json ){\\n    //console.log("drawing tag");\\n    //console.log("drawing tag json "+ tag_json);\\n    //console.log("drawing tag keys"+ Object.getOwnPropertyNames(tag_json));\\n    //console.log("tag_json.tag_type_name = "+tag_json.tag_type_name);\\n    tag_json.tag_type_name = tag_json.tag_type_name.replace(" ","_"); // TODO sanitize strings names!!!!\\n    //console.log("tag_json.evaluation = "+tag_json.evaluation);\\n    //console.log("tag_json.video_time = "+tag_json.video_time);\\n    var canvas_name = tag_json.tag_type_name+"_canvas";// document.getElementById("tags_canvas");\\n    //console.log(" canvas name "+ canvas_name);\\n    try{\\n        if(!all_canvas[canvas_name] ){\\n            add_canvas(canvas_name, tag_json.tag_type_name);\\n        }\\n    }\\n    catch(err){\\n        console.log(err);\\n        add_canvas(canvas_name, tag_json.tag_type_name);\\n    }\\n    //get canvas\\n    var canvas = all_canvas[canvas_name];\\n    //console.log("canvas = "+canvas);\\n    //console.log("canvas_name = "+canvas_name);\\n    //get coordinates\\n    var t=tag_json.video_time.split(":");\\n    var ntime=Number(t[0])*3600+Number(t[1])*60+Number(t[2]);\\n    ytplayer = document.getElementById("ytPlayer");\\n    var duration = ytplayer.getDuration();\\n    //console.log("duration = "+duration);\\n    //console.log(ntime);\\n    var xpos =  (ntime/duration ) * 720;\\n    var ypos = 0;\\n    //set image source according to result\\n    var img_src="\', escape=False)\nresponse.write(URL(\'static\',\'images/QUESTION_icon_20px.png\'))\nresponse.write(\'";\\n    if (tag_json.evaluation=="OK"){\\n        img_src="\', escape=False)\nresponse.write(URL(\'static\',\'images/OK_icon_20px.png\'))\nresponse.write(\'"\\n        ypos = 0;\\n    }else if(tag_json.evaluation=="WARNING"){\\n        img_src="\', escape=False)\nresponse.write(URL(\'static\',\'images/WARNING_20px.png\'))\nresponse.write(\'"\\n        ypos = 5;\\n    }else if(tag_json.evaluation=="BAD"){\\n        img_src="\', escape=False)\nresponse.write(URL(\'static\',\'images/BAD_icon_20px.png\'))\nresponse.write(\'"    \\n        ypos = 10;\\n    }else if(tag_json.evaluation=="QUESTION"){\\n        img_src="\', escape=False)\nresponse.write(URL(\'static\',\'images/QUESTION_icon_20px.png\'))\nresponse.write(\'"\\n        ypos = 5;\\n    }\\n    //console.log(xpos);\\n    //console.log(ypos);\\n    //draw tag on canvas\\n    var tag_obj = canvas.display.image({\\n\\t    x: xpos,\\n\\t    y: ypos,\\n\\t    //origin: { x: "center", y: "center" },\\n\\t    image: img_src,\\n\\t    height: 20,\\n\\t    width: 20,\\n\\t    opacity: 0.6,\\n    });\\n    canvas.addChild(tag_obj);\\n    //bind calls \\n    tag_obj.bind("click tap", function () {\\n\\t        on_tag_click(canvas, this, tag_json);\\n\\t        \\n        });\\n    tag_obj.bind("mouseenter touchenter", function () {\\n\\t        on_tag_enter(canvas, this, tag_json);\\n\\t        \\n        });\\n    tag_obj.bind("mouseleave touchleave", function () {\\n\\t        on_tag_leave(canvas, this, tag_json, ypos);\\n        });\\n}\\n/*\\nfunction canvas_draw_all_tags(tags){\\n    //console.log(\\\'drawing all tags\\\');\\n    //console.log(tags);\\n    for (var i = 0, len = tags.length; i < len; ++i) {\\n                //console.log("JSON object: ");\\n                //console.log(tags[i]);\\n                canvas_draw_tag(tags[i]);\\n            }\\n    //console.log(\\\'DONE drawing tags\\\');\\n}\\n*/\\n//function get_tags(callback){\\nfunction get_tags(){\\n    //get the tags from dtabase, AJAX call\\n    //console.log(\\\'getting tags by AJAX call\\\');\\n    //var parsed = null;\\n    jQuery.ajax({\\n           type: "POST",\\n           url: \\\'\', escape=False)\nresponse.write(URL("get_tags"))\nresponse.write(\'\\\',\\n           data: "video_id=\', escape=False)\nresponse.write(video.id)\nresponse.write(\'"\\n        }).done(function( msg ) {\\n            //console.log(msg);\\n            var parsed = jQuery.parseJSON(msg);\\n            all_tags = parsed;\\n            for (var i = 0, len = parsed.length; i < len; ++i) {\\n                //console.log("JSON object: ");\\n                //console.log(parsed[i]);\\n                canvas_draw_tag( parsed[i] );\\n                \\n            }\\n            //console.log("callback");\\n            //callback(parsed);\\n          });\\n        return false;\\n    //for every tag, draw it\\n    //return parsed_tags;\\n}\\n\\nfunction on_tag_enter(canvas, obj, tag_json){\\n    //console.log("tag enter");\\n    //set cursor to arrow\\n    document.body.style.cursor = \\\'pointer\\\';\\n    canvas.removeChild(obj);\\n    canvas.addChild(obj);\\n    obj.animate({\\n\\t\\t        width: 30,\\n\\t\\t        height: 30,\\n\\t\\t        y: 0,\\n\\t\\t        opacity: 1,\\n\\t\\t        }, 350);\\n    //display time\\n    //console.log("obj = "+tag_json.video_time);\\n    $("#canvas_time_display").text(tag_json.video_time);\\n}\\n\\nfunction on_tag_leave(canvas, obj, tag_json, ypos){\\n    //console.log("tag leave");\\n    //set cursor to arrow\\n    document.body.style.cursor = \\\'default\\\';\\n    obj.animate({\\n\\t\\t        width: 20,\\n\\t\\t        height: 20,\\n\\t\\t        y: ypos,\\n\\t\\t        opacity: 0.6,\\n\\t        }, 350);\\n}\\n\\nfunction on_tag_click(canvas, obj, tag_json){\\n    //console.log("tag click");\\n    setVideoTime(tag_json.video_time);\\n    //play;\\n    if(!ytplayer){\\n        ytplayer = document.getElementById("ytPlayer");\\n        }\\n    ytplayer.playVideo();\\n}\\n\\n\\nfunction canvas_draw_comment(comment_json){\\n //console.log("drawing comment");\\n    //console.log("drawing comment json "+ comment_json);\\n    //console.log("drawing comment keys"+ Object.getOwnPropertyNames(comment_json));\\n    //console.log("comment_json.video_time = "+comment_json.video_time);\\n    //select the correct canvas to draw in (name)\\n    //if canvas does not exist\\n    //  add_canvas\\n    //  select canvas\\n    //draw\\n    var canvas_name = "Comments_canvas";// document.getElementById("tags_canvas");\\n    //console.log(" canvas name "+ canvas_name);\\n    if(!all_canvas[canvas_name] ){\\n        add_canvas(canvas_name, "Comments");\\n        //for interactive display\\n        interactive_canvas_div.append("<div id=\\\'comments_interactive_show\\\'> <span id=\\\'canvas_comment_time_display\\\'></span> | <span id=\\\'canvas_comment_text_display\\\'></span> </div>");\\n        interactive_canvas_div.append("");\\n    }\\n    //get canvas\\n    var canvas = all_canvas[canvas_name];\\n    //console.log(" canvas  "+ canvas);\\n    //get coordinates\\n    var t=comment_json.video_time.split(":");\\n    var ntime=Number(t[0])*3600+Number(t[1])*60+Number(t[2]);\\n    ytplayer = document.getElementById("ytPlayer");\\n    var duration = ytplayer.getDuration();\\n    //console.log("duration = "+duration);\\n    //console.log(ntime);\\n    var xpos =  (ntime/duration ) * 720;\\n    var ypos = 0;\\n    //set image source according to result\\n    var img_src="\', escape=False)\nresponse.write(URL(\'static\',\'images/comment_icon_20px.png\'))\nresponse.write(\'";\\n    //console.log(xpos);\\n    //console.log(ypos);\\n    //console.log(img_src);\\n    //draw tag on canvas\\n    var com_obj = canvas.display.image({\\n\\t    x: xpos,\\n\\t    y: ypos,\\n\\t    //origin: { x: "center", y: "center" },\\n\\t    image: img_src,\\n\\t    height: 20,\\n\\t    width: 20,\\n\\t    opacity: 0.6,\\n    });\\n    canvas.addChild(com_obj);\\n    //bind calls \\n    com_obj.bind("click tap", function () {\\n\\t        on_comment_click(canvas, this, comment_json);\\n\\t        \\n        });\\n    com_obj.bind("mouseenter touchenter", function () {\\n\\t        on_comment_enter(canvas, this, comment_json);\\n\\t        \\n        });\\n    com_obj.bind("mouseleave touchleave", function () {\\n\\t        on_comment_leave(canvas, this, comment_json);\\n        });\\n    \\n}\\n\\nfunction canvas_draw_all_comments(comments){\\n    //for each comment:\\n    //  create comment object on canvas  \\n    //  draw comment\\n}\\n\\nfunction get_comments(){\\n\\n    //get the tags from dtabase, AJAX call\\n    //console.log(\\\'getting comments by AJAX call\\\');\\n    //var parsed = null;\\n    jQuery.ajax({\\n           type: "POST",\\n           url: \\\'\', escape=False)\nresponse.write(URL("get_comments"))\nresponse.write(\'\\\',\\n           data: "video_id=\', escape=False)\nresponse.write(video.id)\nresponse.write(\'"\\n        }).done(function( msg ) {\\n            ////console.log(msg);\\n            var parsed = jQuery.parseJSON(msg);\\n            all_comments = parsed;\\n            for (var i = 0, len = parsed.length; i < len; ++i) {\\n                //console.log("JSON object: ");\\n                //console.log(parsed[i]);\\n                canvas_draw_comment( parsed[i] );\\n                \\n            }\\n            //console.log("callback");\\n            //callback(parsed);\\n          });\\n        return false;\\n}\\n\\nfunction on_comment_enter(canvas, obj, comment_json){\\n    //console.log("comment enter");\\n    //set cursor to arrow\\n    document.body.style.cursor = \\\'pointer\\\';\\n    canvas.removeChild(obj);\\n    canvas.addChild(obj);\\n    obj.animate({\\n\\t\\t        width: 30,\\n\\t\\t        height: 30,\\n\\t\\t        y: 0,\\n\\t\\t        opacity: 1,\\n\\t\\t        }, 350);\\n    $("#canvas_time_display").text(comment_json.video_time);\\n    $("#canvas_comment_time_display").text(comment_json.video_time);\\n    $("#canvas_comment_text_display").text(comment_json.comment);\\n}\\n\\nfunction on_comment_leave(canvas, obj, comment_json, ypos){\\n    //console.log("comment leave");\\n    //set cursor to arrow\\n    document.body.style.cursor = \\\'default\\\';\\n    obj.animate({\\n\\t\\t        width: 20,\\n\\t\\t        height: 20,\\n\\t\\t        y: ypos,\\n\\t\\t        opacity: 0.6,\\n\\t        }, 350);\\n}\\n\\nfunction on_comment_click(canvas, obj, comment_json){\\n    //console.log("comment click");\\n    setVideoTime(comment_json.video_time);\\n    //play;\\n    if(!ytplayer){\\n        ytplayer = document.getElementById("ytPlayer");\\n        }\\n    ytplayer.playVideo();\\n}\\n\\nfunction updateInteractiveComments(time){\\n    //TODO make update of comments that are around the time \\n    // ...need for a good algorithm\\n}\\n\\nfunction change_time_delay(td, tag_name){\\n    //console.log("change time delay "+ td);\\n    //console.log("change time delay "+ time_delay);\\n    var time_delay = Number(document.getElementById("time_delay_"+tag_name).innerHTML)+td;\\n    document.getElementById("time_delay_"+tag_name).innerHTML = time_delay;\\n    //console.log("change time delay "+ time_delay);\\n}\\n\\n////////////////////////////////////////////////////////////////////////////////\\n////INIT\\n////////////////////////////////////////////////////////////////////////////////\\n\\n//init functions for interactive canvas \\n\\nfunction init_interactive_canvas() {\\n    console.log(\\\'INIT interactive canvas\\\');\\n    //get tagging options TODO\\n    //draw interactive tagging canvas TODO\\n    console.log(\\\'getting comments\\\');\\n    var comments = get_comments();\\n    console.log(\\\'getting tags\\\');\\n    var tags = get_tags();\\n    console.log(\\\'DONE init interactive canvas\\\');\\n\\n}\\n\\n//loading after window loaded\\nwindow.onload=function() {\\n    loadPlayer();\\n    //init_canvas();\\n    \\n}  \\n</script>\\n  \', escape=False)\nresponse.write(\'\\n  \', escape=False)\nif response.google_analytics_id:\n    response.write(\'\\n  <script src="\', escape=False)\n    response.write(URL(\'static\',\'js/analytics.min.js\'))\n    response.write(\'"></script>\\n  <script type="text/javascript">\\n  analytics.initialize({\\n    \\\'Google Analytics\\\':{trackingId:\\\'\', escape=False)\n    response.write(response.google_analytics_id)\n    response.write("\'} \\n  });</script>\\n  ", escape=False)\n    pass\nresponse.write(\'\\n  <script src="\', escape=False)\nresponse.write(URL(\'static\',\'js/share.js\',vars=dict(static=URL(\'static\',\'images\'))))\nresponse.write(\'"></script>\\n  \\n  \\n</body>\\n</html>\\n\\n\', escape=False)'
p7
sS'snapshot'
p8
(dp9
S'exception'
p10
(dp11
S'__hash__'
p12
S"<method-wrapper '__hash__' of exceptions.AttributeError object>"
p13
sS'__setattr__'
p14
S"<method-wrapper '__setattr__' of exceptions.AttributeError object>"
p15
sS'__reduce_ex__'
p16
S'<built-in method __reduce_ex__ of exceptions.AttributeError object>'
p17
sS'__getslice__'
p18
S"<method-wrapper '__getslice__' of exceptions.AttributeError object>"
p19
sS'__getitem__'
p20
S"<method-wrapper '__getitem__' of exceptions.AttributeError object>"
p21
sS'__setstate__'
p22
S'<built-in method __setstate__ of exceptions.AttributeError object>'
p23
sS'args'
p24
S'("\'Row\' object has no attribute \'youtube_video_id\'",)'
p25
sS'__reduce__'
p26
S'<built-in method __reduce__ of exceptions.AttributeError object>'
p27
sS'__str__'
p28
S"<method-wrapper '__str__' of exceptions.AttributeError object>"
p29
sS'__format__'
p30
S'<built-in method __format__ of exceptions.AttributeError object>'
p31
sS'__getattribute__'
p32
S"<method-wrapper '__getattribute__' of exceptions.AttributeError object>"
p33
sS'__class__'
p34
S"<type 'exceptions.AttributeError'>"
p35
sS'__unicode__'
p36
S'<built-in method __unicode__ of exceptions.AttributeError object>'
p37
sS'__delattr__'
p38
S"<method-wrapper '__delattr__' of exceptions.AttributeError object>"
p39
sS'__subclasshook__'
p40
S'<built-in method __subclasshook__ of type object>'
p41
sS'__repr__'
p42
S"<method-wrapper '__repr__' of exceptions.AttributeError object>"
p43
sS'__dict__'
p44
S'{}'
p45
sS'__sizeof__'
p46
S'<built-in method __sizeof__ of exceptions.AttributeError object>'
p47
sS'__doc__'
p48
S"'Attribute not found.'"
p49
sS'__init__'
p50
S"<method-wrapper '__init__' of exceptions.AttributeError object>"
p51
sS'__new__'
p52
S'<built-in method __new__ of type object>'
p53
ssS'evalue'
p54
S"'Row' object has no attribute 'youtube_video_id'"
p55
sS'request'
p56
cgluon.html
XML_unpickle
p57
(S's\x06H\x00\x00<div><table><tr><td style="font-weight:bold;vertical-align:top">ajax</td><td valign="top">:</td><td><div>False</div></td></tr><tr><td style="font-weight:bold;vertical-align:top">application</td><td valign="top">:</td><td><div>AnnotatIt</div></td></tr><tr><td style="font-weight:bold;vertical-align:top">args</td><td valign="top">:</td><td><div><table><tr><td><div>f9ICJOyUc1I</div></td></tr></table></div></td></tr><tr><td style="font-weight:bold;vertical-align:top">body</td><td valign="top">:</td><td><div>&lt;cStringIO.StringO object at 0x2810340&gt;</div></td></tr><tr><td style="font-weight:bold;vertical-align:top">cid</td><td valign="top">:</td><td><div>None</div></td></tr><tr><td style="font-weight:bold;vertical-align:top">client</td><td valign="top">:</td><td><div>127.0.0.1</div></td></tr><tr><td style="font-weight:bold;vertical-align:top">controller</td><td valign="top">:</td><td><div>default</div></td></tr><tr><td style="font-weight:bold;vertical-align:top">cookies</td><td valign="top">:</td><td><div><table><tr><td style="font-weight:bold;vertical-align:top">session_id_admin</td><td valign="top">:</td><td><div>127.0.0.1-fb70d80e-d2c0-4142-96d2-4e8cb1e2360e<table><tr><td style="font-weight:bold;vertical-align:top">comment</td><td valign="top">:</td><td><div></div></td></tr><tr><td style="font-weight:bold;vertical-align:top">domain</td><td valign="top">:</td><td><div></div></td></tr><tr><td style="font-weight:bold;vertical-align:top">expires</td><td valign="top">:</td><td><div></div></td></tr><tr><td style="font-weight:bold;vertical-align:top">httponly</td><td valign="top">:</td><td><div></div></td></tr><tr><td style="font-weight:bold;vertical-align:top">max-age</td><td valign="top">:</td><td><div></div></td></tr><tr><td style="font-weight:bold;vertical-align:top">path</td><td valign="top">:</td><td><div></div></td></tr><tr><td style="font-weight:bold;vertical-align:top">secure</td><td valign="top">:</td><td><div></div></td></tr><tr><td style="font-weight:bold;vertical-align:top">version</td><td valign="top">:</td><td><div></div></td></tr></table></div></td></tr><tr><td style="font-weight:bold;vertical-align:top">session_id_annotatit</td><td valign="top">:</td><td><div>127.0.0.1-e4294da3-7cb4-4bef-afc1-172f62a65b4f<table><tr><td style="font-weight:bold;vertical-align:top">comment</td><td valign="top">:</td><td><div></div></td></tr><tr><td style="font-weight:bold;vertical-align:top">domain</td><td valign="top">:</td><td><div></div></td></tr><tr><td style="font-weight:bold;vertical-align:top">expires</td><td valign="top">:</td><td><div></div></td></tr><tr><td style="font-weight:bold;vertical-align:top">httponly</td><td valign="top">:</td><td><div></div></td></tr><tr><td style="font-weight:bold;vertical-align:top">max-age</td><td valign="top">:</td><td><div></div></td></tr><tr><td style="font-weight:bold;vertical-align:top">path</td><td valign="top">:</td><td><div></div></td></tr><tr><td style="font-weight:bold;vertical-align:top">secure</td><td valign="top">:</td><td><div></div></td></tr><tr><td style="font-weight:bold;vertical-align:top">version</td><td valign="top">:</td><td><div></div></td></tr></table></div></td></tr></table></div></td></tr><tr><td style="font-weight:bold;vertical-align:top">env</td><td valign="top">:</td><td><div><table><tr><td style="font-weight:bold;vertical-align:top">app_folders</td><td valign="top">:</td><td><div>set([&#x27;/home/leo/projects/heroku_projects/annotatit/applications/admin/&#x27;, &#x27;/home/leo/projects/heroku_projects/annotatit/applications/AnnotatIt/&#x27;])</div></td></tr><tr><td style="font-weight:bold;vertical-align:top">applications_parent</td><td valign="top">:</td><td><div>/home/leo/projects/heroku_projects/annotatit</div></td></tr><tr><td style="font-weight:bold;vertical-align:top">db_sessions</td><td valign="top">:</td><td><div>set([])</div></td></tr><tr><td style="font-weight:bold;vertical-align:top">debugging</td><td valign="top">:</td><td><div>False</div></td></tr><tr><td style="font-weight:bold;vertical-align:top">gluon_parent</td><td valign="top">:</td><td><div>/home/leo/projects/heroku_projects/annotatit</div></td></tr><tr><td style="font-weight:bold;vertical-align:top">gunicorn_socket</td><td valign="top">:</td><td><div>&lt;socket._socketobject object at 0x2811910&gt;</div></td></tr><tr><td style="font-weight:bold;vertical-align:top">http_accept</td><td valign="top">:</td><td><div>text/html,application/xhtml+xml,application/xml;q=0.9,*/*;q=0.8</div></td></tr><tr><td style="font-weight:bold;vertical-align:top">http_accept_charset</td><td valign="top">:</td><td><div>ISO-8859-1,utf-8;q=0.7,*;q=0.3</div></td></tr><tr><td style="font-weight:bold;vertical-align:top">http_accept_encoding</td><td valign="top">:</td><td><div>gzip,deflate,sdch</div></td></tr><tr><td style="font-weight:bold;vertical-align:top">http_accept_language</td><td valign="top">:</td><td><div>en-US,en;q=0.8,fr;q=0.6,es;q=0.4</div></td></tr><tr><td style="font-weight:bold;vertical-align:top">http_cache_control</td><td valign="top">:</td><td><div>max-age=0</div></td></tr><tr><td style="font-weight:bold;vertical-align:top">http_connection</td><td valign="top">:</td><td><div>keep-alive</div></td></tr><tr><td style="font-weight:bold;vertical-align:top">http_cookie</td><td valign="top">:</td><td><div>session_id_annotatit=127.0.0.1-e4294da3-7cb4-4bef-afc1-172f62a65b4f; session_id_admin=127.0.0.1-fb70d80e-d2c0-4142-96d2-4e8cb1e2360e</div></td></tr><tr><td style="font-weight:bold;vertical-align:top">http_host</td><td valign="top">:</td><td><div>127.0.0.1:5000</div></td></tr><tr><td style="font-weight:bold;vertical-align:top">http_referer</td><td valign="top">:</td><td><div>http://127.0.0.1:5000/my_videos</div></td></tr><tr><td style="font-weight:bold;vertical-align:top">http_user_agent</td><td valign="top">:</td><td><div>Mozilla/5.0 (X11; Linux x86_64) AppleWebKit/537.31 (KHTML, like Gecko) Chrome/26.0.1410.63 Safari/537.31</div></td></tr><tr><td style="font-weight:bold;vertical-align:top">is_jython</td><td valign="top">:</td><td><div>False</div></td></tr><tr><td style="font-weight:bold;vertical-align:top">is_pypy</td><td valign="top">:</td><td><div>False</div></td></tr><tr><td style="font-weight:bold;vertical-align:top">local_hosts</td><td valign="top">:</td><td><div><table><tr><td><div>cotita</div></td></tr><tr><td><div>::1</div></td></tr><tr><td><div>127.0.1.1</div></td></tr><tr><td><div>::ffff:127.0.0.1</div></td></tr><tr><td><div>127.0.0.1</div></td></tr></table></div></td></tr><tr><td style="font-weight:bold;vertical-align:top">path_info</td><td valign="top">:</td><td><div>/view_video/f9ICJOyUc1I</div></td></tr><tr><td style="font-weight:bold;vertical-align:top">query_string</td><td valign="top">:</td><td><div></div></td></tr><tr><td style="font-weight:bold;vertical-align:top">raw_uri</td><td valign="top">:</td><td><div>/view_video/f9ICJOyUc1I</div></td></tr><tr><td style="font-weight:bold;vertical-align:top">remote_addr</td><td valign="top">:</td><td><div>127.0.0.1</div></td></tr><tr><td style="font-weight:bold;vertical-align:top">remote_port</td><td valign="top">:</td><td><div>39057</div></td></tr><tr><td style="font-weight:bold;vertical-align:top">request_method</td><td valign="top">:</td><td><div>GET</div></td></tr><tr><td style="font-weight:bold;vertical-align:top">request_uri</td><td valign="top">:</td><td><div>/AnnotatIt/default/view_video/f9ICJOyUc1I</div></td></tr><tr><td style="font-weight:bold;vertical-align:top">script_name</td><td valign="top">:</td><td><div></div></td></tr><tr><td style="font-weight:bold;vertical-align:top">server_name</td><td valign="top">:</td><td><div>127.0.0.1</div></td></tr><tr><td style="font-weight:bold;vertical-align:top">server_port</td><td valign="top">:</td><td><div>5000</div></td></tr><tr><td style="font-weight:bold;vertical-align:top">server_protocol</td><td valign="top">:</td><td><div>HTTP/1.1</div></td></tr><tr><td style="font-weight:bold;vertical-align:top">server_software</td><td valign="top">:</td><td><div>gunicorn/0.17.2</div></td></tr><tr><td style="font-weight:bold;vertical-align:top">web2py_crontype</td><td valign="top">:</td><td><div>soft</div></td></tr><tr><td style="font-weight:bold;vertical-align:top">web2py_original_uri</td><td valign="top">:</td><td><div>/view_video/f9ICJOyUc1I</div></td></tr><tr><td style="font-weight:bold;vertical-align:top">web2py_path</td><td valign="top">:</td><td><div>/home/leo/projects/heroku_projects/annotatit</div></td></tr><tr><td style="font-weight:bold;vertical-align:top">web2py_version</td><td valign="top">:</td><td><div>2.4.6-stable+timestamp.2013.04.06.17.37.38</div></td></tr><tr><td style="font-weight:bold;vertical-align:top">wsgi_errors</td><td valign="top">:</td><td><div>&lt;open file &#x27;&lt;stderr&gt;&#x27;, mode &#x27;w&#x27; at 0x7fface4e2270&gt;</div></td></tr><tr><td style="font-weight:bold;vertical-align:top">wsgi_file_wrapper</td><td valign="top">:</td><td><div>&lt;class gunicorn.http.wsgi.FileWrapper at 0x22c9bb0&gt;</div></td></tr><tr><td style="font-weight:bold;vertical-align:top">wsgi_input</td><td valign="top">:</td><td><div>&lt;gunicorn.http.body.Body object at 0x3212990&gt;</div></td></tr><tr><td style="font-weight:bold;vertical-align:top">wsgi_multiprocess</td><td valign="top">:</td><td><div>False</div></td></tr><tr><td style="font-weight:bold;vertical-align:top">wsgi_multithread</td><td valign="top">:</td><td><div>False</div></td></tr><tr><td style="font-weight:bold;vertical-align:top">wsgi_run_once</td><td valign="top">:</td><td><div>False</div></td></tr><tr><td style="font-weight:bold;vertical-align:top">wsgi_url_scheme</td><td valign="top">:</td><td><div>http</div></td></tr><tr><td style="font-weight:bold;vertical-align:top">wsgi_version</td><td valign="top">:</td><td><div><table><tr><td><div>1</div></td></tr><tr><td><div>0</div></td></tr></table></div></td></tr></table></div></td></tr><tr><td style="font-weight:bold;vertical-align:top">extension</td><td valign="top">:</td><td><div>html</div></td></tr><tr><td style="font-weight:bold;vertical-align:top">folder</td><td valign="top">:</td><td><div>/home/leo/projects/heroku_projects/annotatit/applications/AnnotatIt/</div></td></tr><tr><td style="font-weight:bold;vertical-align:top">function</td><td valign="top">:</td><td><div>view_video</div></td></tr><tr><td style="font-weight:bold;vertical-align:top">get_vars</td><td valign="top">:</td><td><div><table></table></div></td></tr><tr><td style="font-weight:bold;vertical-align:top">global_settings</td><td valign="top">:</td><td><div><table><tr><td style="font-weight:bold;vertical-align:top">app_folders</td><td valign="top">:</td><td><div>set([&#x27;/home/leo/projects/heroku_projects/annotatit/applications/admin/&#x27;, &#x27;/home/leo/projects/heroku_projects/annotatit/applications/AnnotatIt/&#x27;])</div></td></tr><tr><td style="font-weight:bold;vertical-align:top">applications_parent</td><td valign="top">:</td><td><div>/home/leo/projects/heroku_projects/annotatit</div></td></tr><tr><td style="font-weight:bold;vertical-align:top">db_sessions</td><td valign="top">:</td><td><div>set([])</div></td></tr><tr><td style="font-weight:bold;vertical-align:top">debugging</td><td valign="top">:</td><td><div>False</div></td></tr><tr><td style="font-weight:bold;vertical-align:top">gluon_parent</td><td valign="top">:</td><td><div>/home/leo/projects/heroku_projects/annotatit</div></td></tr><tr><td style="font-weight:bold;vertical-align:top">is_jython</td><td valign="top">:</td><td><div>False</div></td></tr><tr><td style="font-weight:bold;vertical-align:top">is_pypy</td><td valign="top">:</td><td><div>False</div></td></tr><tr><td style="font-weight:bold;vertical-align:top">local_hosts</td><td valign="top">:</td><td><div><table><tr><td><div>cotita</div></td></tr><tr><td><div>::1</div></td></tr><tr><td><div>127.0.1.1</div></td></tr><tr><td><div>::ffff:127.0.0.1</div></td></tr><tr><td><div>127.0.0.1</div></td></tr></table></div></td></tr><tr><td style="font-weight:bold;vertical-align:top">web2py_crontype</td><td valign="top">:</td><td><div>soft</div></td></tr><tr><td style="font-weight:bold;vertical-align:top">web2py_version</td><td valign="top">:</td><td><div>2.4.6-stable+timestamp.2013.04.06.17.37.38</div></td></tr></table></div></td></tr><tr><td style="font-weight:bold;vertical-align:top">is_https</td><td valign="top">:</td><td><div>False</div></td></tr><tr><td style="font-weight:bold;vertical-align:top">is_local</td><td valign="top">:</td><td><div>True</div></td></tr><tr><td style="font-weight:bold;vertical-align:top">is_restful</td><td valign="top">:</td><td><div>False</div></td></tr><tr><td style="font-weight:bold;vertical-align:top">now</td><td valign="top">:</td><td><div>datetime.datetime(2013, 5, 17, 18, 23, 1, 809404)</div></td></tr><tr><td style="font-weight:bold;vertical-align:top">post_vars</td><td valign="top">:</td><td><div><table></table></div></td></tr><tr><td style="font-weight:bold;vertical-align:top">url</td><td valign="top">:</td><td><div>/view_video/f9ICJOyUc1I</div></td></tr><tr><td style="font-weight:bold;vertical-align:top">utcnow</td><td valign="top">:</td><td><div>datetime.datetime(2013, 5, 17, 16, 23, 1, 809419)</div></td></tr><tr><td style="font-weight:bold;vertical-align:top">uuid</td><td valign="top">:</td><td><div>AnnotatIt/127.0.0.1.2013-05-17.18-23-01.ad90b97f-db53-4e8c-9bb2-614bb49a9b76</div></td></tr><tr><td style="font-weight:bold;vertical-align:top">vars</td><td valign="top">:</td><td><div><table></table></div></td></tr><tr><td style="font-weight:bold;vertical-align:top">wsgi</td><td valign="top">:</td><td><div><table><tr><td style="font-weight:bold;vertical-align:top">environ</td><td valign="top">:</td><td><div><table><tr><td style="font-weight:bold;vertical-align:top">HTTP_ACCEPT</td><td valign="top">:</td><td><div>text/html,application/xhtml+xml,application/xml;q=0.9,*/*;q=0.8</div></td></tr><tr><td style="font-weight:bold;vertical-align:top">HTTP_ACCEPT_CHARSET</td><td valign="top">:</td><td><div>ISO-8859-1,utf-8;q=0.7,*;q=0.3</div></td></tr><tr><td style="font-weight:bold;vertical-align:top">HTTP_ACCEPT_ENCODING</td><td valign="top">:</td><td><div>gzip,deflate,sdch</div></td></tr><tr><td style="font-weight:bold;vertical-align:top">HTTP_ACCEPT_LANGUAGE</td><td valign="top">:</td><td><div>en-US,en;q=0.8,fr;q=0.6,es;q=0.4</div></td></tr><tr><td style="font-weight:bold;vertical-align:top">HTTP_CACHE_CONTROL</td><td valign="top">:</td><td><div>max-age=0</div></td></tr><tr><td style="font-weight:bold;vertical-align:top">HTTP_CONNECTION</td><td valign="top">:</td><td><div>keep-alive</div></td></tr><tr><td style="font-weight:bold;vertical-align:top">HTTP_COOKIE</td><td valign="top">:</td><td><div>session_id_annotatit=127.0.0.1-e4294da3-7cb4-4bef-afc1-172f62a65b4f; session_id_admin=127.0.0.1-fb70d80e-d2c0-4142-96d2-4e8cb1e2360e</div></td></tr><tr><td style="font-weight:bold;vertical-align:top">HTTP_HOST</td><td valign="top">:</td><td><div>127.0.0.1:5000</div></td></tr><tr><td style="font-weight:bold;vertical-align:top">HTTP_REFERER</td><td valign="top">:</td><td><div>http://127.0.0.1:5000/my_videos</div></td></tr><tr><td style="font-weight:bold;vertical-align:top">HTTP_USER_AGENT</td><td valign="top">:</td><td><div>Mozilla/5.0 (X11; Linux x86_64) AppleWebKit/537.31 (KHTML, like Gecko) Chrome/26.0.1410.63 Safari/537.31</div></td></tr><tr><td style="font-weight:bold;vertical-align:top">PATH_INFO</td><td valign="top">:</td><td><div>/view_video/f9ICJOyUc1I</div></td></tr><tr><td style="font-weight:bold;vertical-align:top">QUERY_STRING</td><td valign="top">:</td><td><div></div></td></tr><tr><td style="font-weight:bold;vertical-align:top">RAW_URI</td><td valign="top">:</td><td><div>/view_video/f9ICJOyUc1I</div></td></tr><tr><td style="font-weight:bold;vertical-align:top">REMOTE_ADDR</td><td valign="top">:</td><td><div>127.0.0.1</div></td></tr><tr><td style="font-weight:bold;vertical-align:top">REMOTE_PORT</td><td valign="top">:</td><td><div>39057</div></td></tr><tr><td style="font-weight:bold;vertical-align:top">REQUEST_METHOD</td><td valign="top">:</td><td><div>GET</div></td></tr><tr><td style="font-weight:bold;vertical-align:top">REQUEST_URI</td><td valign="top">:</td><td><div>/AnnotatIt/default/view_video/f9ICJOyUc1I</div></td></tr><tr><td style="font-weight:bold;vertical-align:top">SCRIPT_NAME</td><td valign="top">:</td><td><div></div></td></tr><tr><td style="font-weight:bold;vertical-align:top">SERVER_NAME</td><td valign="top">:</td><td><div>127.0.0.1</div></td></tr><tr><td style="font-weight:bold;vertical-align:top">SERVER_PORT</td><td valign="top">:</td><td><div>5000</div></td></tr><tr><td style="font-weight:bold;vertical-align:top">SERVER_PROTOCOL</td><td valign="top">:</td><td><div>HTTP/1.1</div></td></tr><tr><td style="font-weight:bold;vertical-align:top">SERVER_SOFTWARE</td><td valign="top">:</td><td><div>gunicorn/0.17.2</div></td></tr><tr><td style="font-weight:bold;vertical-align:top">WEB2PY_ORIGINAL_URI</td><td valign="top">:</td><td><div>/view_video/f9ICJOyUc1I</div></td></tr><tr><td style="font-weight:bold;vertical-align:top">gunicorn.socket</td><td valign="top">:</td><td><div>&lt;socket._socketobject object at 0x2811910&gt;</div></td></tr><tr><td style="font-weight:bold;vertical-align:top">wsgi.errors</td><td valign="top">:</td><td><div>&lt;open file &#x27;&lt;stderr&gt;&#x27;, mode &#x27;w&#x27; at 0x7fface4e2270&gt;</div></td></tr><tr><td style="font-weight:bold;vertical-align:top">wsgi.file_wrapper</td><td valign="top">:</td><td><div>&lt;class gunicorn.http.wsgi.FileWrapper at 0x22c9bb0&gt;</div></td></tr><tr><td style="font-weight:bold;vertical-align:top">wsgi.input</td><td valign="top">:</td><td><div>&lt;cStringIO.StringO object at 0x2810340&gt;</div></td></tr><tr><td style="font-weight:bold;vertical-align:top">wsgi.multiprocess</td><td valign="top">:</td><td><div>False</div></td></tr><tr><td style="font-weight:bold;vertical-align:top">wsgi.multithread</td><td valign="top">:</td><td><div>False</div></td></tr><tr><td style="font-weight:bold;vertical-align:top">wsgi.run_once</td><td valign="top">:</td><td><div>False</div></td></tr><tr><td style="font-weight:bold;vertical-align:top">wsgi.url_scheme</td><td valign="top">:</td><td><div>http</div></td></tr><tr><td style="font-weight:bold;vertical-align:top">wsgi.version</td><td valign="top">:</td><td><div>1</div></td></tr></table></div></td></tr></table></div></td></tr></table></div>'
tRp58
sS'frames'
p59
(lp60
(dp61
S'file'
p62
S'/home/leo/projects/heroku_projects/annotatit/gluon/restricted.py'
p63
sS'dump'
p64
(dp65
S'environment'
p66
S"{'A': <class 'gluon.html.A'>, 'ANY_OF': <class 'gluon.validators.ANY_OF'>, 'APP_DOMAIN_NAME': 'AnnotatIt.com', 'APP_NAME': 'AnnotatIt', 'Auth': <class 'gluon.tools.Auth'>, 'B': <class 'gluon.html.B'>, 'BEAUTIFY': <class 'gluon.html.BEAUTIFY'>, 'BODY': <class 'gluon.html.BODY'>, 'BR': <class 'gluon.html.BR'>, 'BUTTON': <class 'gluon.html.BUTTON'>, ...}"
p67
sS'ccode'
p68
S'<code object <module> at 0x2b33bb0, file "/home/...AnnotatIt/views/default/view_video.html", line 1>'
p69
ssS'lnum'
p70
I212
sS'lines'
p71
(dp72
I207
S'    try:'
p73
sI208
S'        if isinstance(code, types.CodeType):'
p74
sI209
S'            ccode = code'
p75
sI210
S'        else:'
p76
sI211
S'            ccode = compile2(code, layer)'
p77
sI212
S'        exec ccode in environment'
p78
sI213
S'    except HTTP:'
p79
sI214
S'        raise'
p80
sI215
S'    except RestrictedError:'
p81
sI216
S'        # do not encapsulate (obfuscate) the original RestrictedError'
p82
ssS'call'
p83
S'(code="left_sidebar_enabled= False\\nresponse.write(\'\\\\n\',...pt>\\\\n  \\\\n  \\\\n</body>\\\\n</html>\\\\n\\\\n\', escape=False)", environment={\'A\': <class \'gluon.html.A\'>, \'ANY_OF\': <class \'gluon.validators.ANY_OF\'>, \'APP_DOMAIN_NAME\': \'AnnotatIt.com\', \'APP_NAME\': \'AnnotatIt\', \'Auth\': <class \'gluon.tools.Auth\'>, \'B\': <class \'gluon.html.B\'>, \'BEAUTIFY\': <class \'gluon.html.BEAUTIFY\'>, \'BODY\': <class \'gluon.html.BODY\'>, \'BR\': <class \'gluon.html.BR\'>, \'BUTTON\': <class \'gluon.html.BUTTON\'>, ...}, layer=\'/home/leo/projects/heroku_projects/annotatit/applications/AnnotatIt/views/default/view_video.html\')'
p84
sS'func'
p85
S'restricted'
p86
sa(dp87
g62
S'/home/leo/projects/heroku_projects/annotatit/applications/AnnotatIt/views/default/view_video.html'
p88
sg64
(dp89
S'updateTime'
p90
S'undefined'
p91
sS'exists'
p92
g91
sS'it'
p93
g91
sS'one'
p94
g91
sS'Also'
p95
g91
sS'at'
p96
g91
sS'unloads'
p97
g91
sS'check'
p98
g91
sS'before'
p99
g91
sS'updatePlayerInfo'
p100
g91
sS'clearing'
p101
g91
sS'since'
p102
g91
sS'when'
p103
g91
sS'least'
p104
g91
sS'ytplayer'
p105
g91
sS'destroy'
p106
g91
sS'function'
p107
g91
sS'that'
p108
g91
sS'updateInteractiveComments'
p109
g91
sS'SWF'
p110
g91
sS'IE'
p111
g91
sS'interval'
p112
g91
sS'will'
p113
g91
sS'the'
p114
g91
sS'page'
p115
g91
ssg70
I171
sg71
(dp116
I162
S'response.write(\'\\n                    <a href="http://www.web2py.com/">web2py</a>\\n                </div>\\n                \', escape=False)'
p117
sI163
S'response.write(\'\\n            </div>\\n        </footer>\\n    </div>\\n\\n  </div> <!-- /container -->\\n\\n  <!-- The javascript =============================================\\n       (Placed at the end of the document so the pages load faster) -->\\n  <script src="\', escape=False)'
p118
sI164
S"response.write(URL('static','js/bootstrap.min.js'))"
p119
sI165
S'response.write(\'"></script>\\n  <script src="\', escape=False)'
p120
sI166
S"response.write(URL('static','js/web2py_bootstrap.js'))"
p121
sI167
S'response.write(\'"></script>\\n  <!--[if lt IE 7 ]>\\n      <script src="\', escape=False)'
p122
sI168
S"response.write(URL('static','js/dd_belatedpng.js'))"
p123
sI169
S'response.write(\'"></script>\\n      <script> DD_belatedPNG.fix(\\\'img, .png_bg\\\'); //fix any <img> or .png_bg background-images </script>\\n      <![endif]-->\\n  \', escape=False)'
p124
sI170
S'response.write(\'\\n\\n<!-- Load ocanvas -->\\n\\n<script type="text/javascript">\\nvar current_time = 0;\\n\\n\\n/*\\n * Polling the player for information\\n */\\n\\n// Update a particular HTML element with a new value\\nfunction updateHTML(elmId, value) {\\n  document.getElementById(elmId).innerHTML = value;\\n}\\n\\nfunction updateValue(elmId, val) {\\n  document.getElementById(elmId).value = val;\\n}\\n\\nfunction updateTime(elmId, val) {\\n    val = Number(val);\\n    current_time = val;\\n    var hh = Math.floor(val/3600);\\n    var mm = Math.floor(val/60);\\n    var ss = val%60; \\n    tval = hh.toString()+\\\':\\\'+mm.toString()+\\\':\\\'+ss.toString()\\n    document.getElementById(elmId).value = tval;\\n}\\n// This function is called when an error is thrown by the player\\nfunction onPlayerError(errorCode) {\\n  alert("An error occured of type:" + errorCode);\\n  console.log("An error occured of type:" + errorCode);\\n}\\n\\n// This function is called when the player changes state\\nfunction onPlayerStateChange(newState) {\\n  updateHTML("playerState", newState);\\n}\\n\\n// Display information about the current state of the player\\nfunction updatePlayerInfo() {\\n  // Also check that at least one function exists since when IE unloads the\\n  // page, it will destroy the SWF before clearing the interval.\\n  if(ytplayer && ytplayer.getDuration) {\\n    updateTime("video_time", ytplayer.getCurrentTime());\\n    updateInteractiveComments(ytplayer.getCurrentTime());\\n  }\\n}\\n\\n// This function is automatically called by the player once it loads\\nfunction onYouTubePlayerReady(playerId) {\\n  //console.log("Player loaded and ready, setting callbacks");\\n  ytplayer = document.getElementById("ytPlayer");\\n  // This causes the updatePlayerInfo function to be called every 50ms to\\n  // get fresh data from the player\\n  setInterval(updatePlayerInfo, 50);\\n  updatePlayerInfo();\\n  //ytplayer.addEventListener("onStateChange", "onPlayerStateChange");\\n  ytplayer.addEventListener("onError", "onPlayerError");\\n  //need to start playing to get video metadata.\\n  //NEED video metadata to get duration of the video for calculating the positions of tags and comments!!\\n  ytplayer.mute();\\n  // play video to get meta data\\n  ytplayer.playVideo();\\n  yt_get_duration = function(){\\n        // if duration is available\\n        if (ytplayer.getDuration() > 0) {\\n            // pause video\\n            ytplayer.pauseVideo();\\n            // unmute\\n            ytplayer.unMute();\\n            // save duration\\n            return ytplayer.getDuration();\\n\\n        }\\n        // else keep trying\\n        else {\\n            setTimeout(yt_get_duration[index], 150)\\n        }\\n    }\\n  var duration = yt_get_duration();\\n  //now init the visualization\\n  //init_canvas(); //deprecated\\n  init_interactive_canvas();\\n}\\n\\nfunction loadPlayer(){\\n  //console.log("Loading Player");\\n  // The video to load\\n  var videoID = "\', escape=False)'
p125
sI171
S'response.write(video.youtube_video_id)'
p126
sI172
S'response.write(\'"; \\n  // Lets Flash from another domain call JavaScript\\n  var params = { allowScriptAccess: "always" };\\n  // The element id of the Flash embed\\n  var atts = { id: "ytPlayer" };\\n  // All of the magic handled by SWFObject (http://code.google.com/p/swfobject/)\\n  swfobject.embedSWF("http://www.youtube.com/v/" + videoID + \\n                     "?version=3&enablejsapi=1&playerapiid=player1", \\n                     "videoDiv", "720", "480", "9", null, null, params, atts);\\n}\\n\\n\\nfunction setVideoTime(time){\\n    //console.log("setting time");    \\n    //console.log(time);\\n    //this parses the string hh:mm:ss into values and \\n    var t=time.split(":");\\n    ntime=Number(t[0])*3600+Number(t[1])*60+Number(t[2]);\\n    ytplayer.seekTo(ntime, true);\\n}\\n\\n////////////////////////////////////////////////////////////////////////////////\\n//// On FORMS and tags actions\\n////////////////////////////////////////////////////////////////////////////////\\nfunction annotation_submit(){\\n    //console.log("summiting annotation");\\n    ajax("\', escape=False)'
p127
sI173
S"response.write(URL('post_annotation',args=request.args(0)))"
p128
sI174
S'response.write(\'",\\n           ["video_id","video_time","comment"], \\\'annotation_response\\\');\\n    var time_delay = Number(document.getElementById("time_delay_comments").innerHTML);\\n    //console.log("comment delay = "+time_delay);\\n    var json_response = new Object();\\n    ntime=current_time + time_delay;\\n    if (ntime<0){\\n        ntime = 0;\\n    }\\n    var hh = Math.floor(ntime/3600);\\n    var mm = Math.floor(ntime/60);\\n    var ss = ntime%60; \\n    tval = hh.toString()+\\\':\\\'+mm.toString()+\\\':\\\'+ss.toString()\\n    json_response.video_time = tval; //\\n    if (json_response.video_time<0){\\n        json_response.video_time = 0;\\n    }\\n    json_response.comment = document.getElementById("comment").value;\\n    json_response.video_id = document.getElementById("video_id").value;\\n    canvas_draw_comment( json_response);\\n    return false;\\n}\\n\\n\\nfunction advice_submit(){\\n    console.log("summiting advice");\\n    ajax("\', escape=False)'
p129
sI175
S"response.write(URL('post_advice',args=request.args(0)))"
p130
sI176
S'response.write(\'",\\n           ["annotation_video_id", "advice_text"], \\\'advice_response\\\');\\n    //add advice to advice list TODO\\n    return false;\\n}\\n\\nfunction pause_video(){\\n    if(ytplayer){\\n        ytplayer.pauseVideo();\\n    }\\n}\\n\\nfunction on_comment(){\\n    pause_video();\\n    //set_comment_time();\\n    return false;\\n}\\n\\nfunction on_tag(tag_type, evaluation){\\n    //set tag type name\\n    var tag_name = document.getElementById(tag_type).value; //innerHTML;\\n    //console.log("creating tag: "+ tag_name);\\n    document.getElementById("tag_type_name").value = tag_name;\\n    //set evaluation\\n    document.getElementById("evaluation").value = evaluation;\\n    //time = document.getElementById("video_time");\\n    //post_args = []\\n    ajax("\', escape=False)'
p131
sI177
S'response.write(URL(\'post_tag\',args=""))'
p132
sI178
S'response.write(\'",\\n           ["tag_type_name", "video_id","video_time","evaluation"], \\\'tag_response\\\');\\n    //console.log(tag_name);\\n    //console.log(document.getElementById("time_delay_"+tag_name));\\n    var time_delay = Number(document.getElementById("time_delay_"+tag_name).innerHTML);\\n    //console.log("tag delay = "+time_delay);\\n    var json_response = new Object();\\n    ntime=current_time + time_delay;\\n    if (ntime<0){\\n        ntime = 0;\\n    }\\n    var hh = Math.floor(ntime/3600);\\n    var mm = Math.floor(ntime/60);\\n    var ss = ntime%60; \\n    tval = hh.toString()+\\\':\\\'+mm.toString()+\\\':\\\'+ss.toString()\\n    json_response.video_time = tval; //\\n    //console.log("tag time = "+document.getElementById("video_time").value);\\n    //console.log("tag json_response.video_time = "+json_response.video_time);\\n    if (json_response.video_time<0){\\n        json_response.video_time = 0;\\n    }\\n    json_response.tag_type_name = document.getElementById("tag_type_name").value;\\n    json_response.evaluation = document.getElementById("evaluation").value;\\n    json_response.video_id = document.getElementById("video_id").value;\\n    canvas_draw_tag( json_response);\\n                   \\n    return false;\\n}\\n\\n////////////////////////////////////////////////////////////////////////////////\\n//// NEW canvas things -- more interactive\\n////////////////////////////////////////////////////////////////////////////////\\n\\n//Vars\\n///////////////////////\\n\\nvar all_comments = new Array();\\nvar all_tags = new Array();\\nvar all_canvas = new Object(); // {};\\nvar interactive_canvas_div = $(\\\'#canvas_div\\\');\\n//Functions\\n////////////////////////\\nfunction add_canvas(canvas_name, field_name){\\n    //find where to put the canvas\\n    // add the canvas object to DOM\\n    var canvas_text = \\\'<canvas id="\\\'+canvas_name+\\\'" width="720" height="30"></canvas>\\\';\\n    //console.log(\\\'canvas_text = \\\'+canvas_text);\\n    interactive_canvas_div.append("<div ><h4>"+field_name+"</h4> </div>");\\n    /*del_tag =  "<div id=\\\'"+field_name+"_del_tag_option\\\' > </div>"\\n    tag_options = ""\\n    //change_tag = "<div id=\\\'"+field_name+"_change_tag_option\\\' > "+ tag_options+"  </div>"\\n    time_display = "<div id=\\\'"+field_name+"_time_display\\\' > </div>"\\n    menu_options = del_tag + change_tag\\n    canvas_menu = "<div id=\\\'canvas_menu_"+field_name+"\\\' > "+ menu_ options +" </div>"\\n    */\\n    interactive_canvas_div.append();\\n    interactive_canvas_div.append(canvas_text);\\n    //console.log(\\\'init oCanvas for this instance\\\');\\n    // init ocanvas \\n    var canvas = oCanvas.create({\\n\\t    canvas: "#"+canvas_name,\\n\\t    background: "#EEF",\\n    });\\n    //console.log(\\\'adding to canvas dict\\\');\\n    all_canvas[canvas_name] = canvas;\\n    //console.log(\\\'DONE\\\');\\n    // done\\n}\\n\\nfunction canvas_draw_tag( tag_json ){\\n    //console.log("drawing tag");\\n    //console.log("drawing tag json "+ tag_json);\\n    //console.log("drawing tag keys"+ Object.getOwnPropertyNames(tag_json));\\n    //console.log("tag_json.tag_type_name = "+tag_json.tag_type_name);\\n    tag_json.tag_type_name = tag_json.tag_type_name.replace(" ","_"); // TODO sanitize strings names!!!!\\n    //console.log("tag_json.evaluation = "+tag_json.evaluation);\\n    //console.log("tag_json.video_time = "+tag_json.video_time);\\n    var canvas_name = tag_json.tag_type_name+"_canvas";// document.getElementById("tags_canvas");\\n    //console.log(" canvas name "+ canvas_name);\\n    try{\\n        if(!all_canvas[canvas_name] ){\\n            add_canvas(canvas_name, tag_json.tag_type_name);\\n        }\\n    }\\n    catch(err){\\n        console.log(err);\\n        add_canvas(canvas_name, tag_json.tag_type_name);\\n    }\\n    //get canvas\\n    var canvas = all_canvas[canvas_name];\\n    //console.log("canvas = "+canvas);\\n    //console.log("canvas_name = "+canvas_name);\\n    //get coordinates\\n    var t=tag_json.video_time.split(":");\\n    var ntime=Number(t[0])*3600+Number(t[1])*60+Number(t[2]);\\n    ytplayer = document.getElementById("ytPlayer");\\n    var duration = ytplayer.getDuration();\\n    //console.log("duration = "+duration);\\n    //console.log(ntime);\\n    var xpos =  (ntime/duration ) * 720;\\n    var ypos = 0;\\n    //set image source according to result\\n    var img_src="\', escape=False)'
p133
sI179
S"response.write(URL('static','images/QUESTION_icon_20px.png'))"
p134
sI180
S'response.write(\'";\\n    if (tag_json.evaluation=="OK"){\\n        img_src="\', escape=False)'
p135
sI181
S"response.write(URL('static','images/OK_icon_20px.png'))"
p136
ssg83
S'()'
p137
sg85
S'<module>'
p138
sasS'pyver'
p139
S'Python 2.7.3: /home/leo/projects/heroku_projects/annotatit/venv/bin/python (prefix: /home/leo/projects/heroku_projects/annotatit/venv)'
p140
sS'session'
p141
g57
(S's\xe4\x08\x00\x00<div><table><tr><td style="font-weight:bold;vertical-align:top">auth</td><td valign="top">:</td><td><div><table><tr><td style="font-weight:bold;vertical-align:top">expiration</td><td valign="top">:</td><td><div>2592000</div></td></tr><tr><td style="font-weight:bold;vertical-align:top">hmac_key</td><td valign="top">:</td><td><div>7a6ef0c6-f505-44de-b8c2-5d46338e65e5</div></td></tr><tr><td style="font-weight:bold;vertical-align:top">last_visit</td><td valign="top">:</td><td><div>datetime.datetime(2013, 4, 24, 13, 50, 40, 234273)</div></td></tr><tr><td style="font-weight:bold;vertical-align:top">remember</td><td valign="top">:</td><td><div>True</div></td></tr><tr><td style="font-weight:bold;vertical-align:top">user</td><td valign="top">:</td><td><div><table><tr><td style="font-weight:bold;vertical-align:top">email</td><td valign="top">:</td><td><div>leo.m.rocha@gmail.com</div></td></tr><tr><td style="font-weight:bold;vertical-align:top">first_name</td><td valign="top">:</td><td><div>leo</div></td></tr><tr><td style="font-weight:bold;vertical-align:top">id</td><td valign="top">:</td><td><div>1</div></td></tr><tr><td style="font-weight:bold;vertical-align:top">last_name</td><td valign="top">:</td><td><div>rocha</div></td></tr><tr><td style="font-weight:bold;vertical-align:top">registration_id</td><td valign="top">:</td><td><div></div></td></tr><tr><td style="font-weight:bold;vertical-align:top">registration_key</td><td valign="top">:</td><td><div></div></td></tr><tr><td style="font-weight:bold;vertical-align:top">reset_password_key</td><td valign="top">:</td><td><div></div></td></tr></table></div></td></tr><tr><td style="font-weight:bold;vertical-align:top">user_groups</td><td valign="top">:</td><td><div><table><tr><td style="font-weight:bold;vertical-align:top">1</td><td valign="top">:</td><td><div>user_1</div></td></tr></table></div></td></tr></table></div></td></tr><tr><td style="font-weight:bold;vertical-align:top">flash</td><td valign="top">:</td><td><div>None</div></td></tr><tr><td style="font-weight:bold;vertical-align:top">last_orderby</td><td valign="top">:</td><td><div>None</div></td></tr><tr><td style="font-weight:bold;vertical-align:top">last_query</td><td valign="top">:</td><td><div>db.video.id&gt;0</div></td></tr></table></div>'
tRp142
sS'etype'
p143
S"<type 'exceptions.AttributeError'>"
p144
sS'date'
p145
S'Fri May 17 18:23:01 2013'
p146
sS'response'
p147
g57
(S's\xf6\x1b\x00\x00<div><table><tr><td style="font-weight:bold;vertical-align:top">body</td><td valign="top">:</td><td><div>&lt;cStringIO.StringO object at 0x2b449d0&gt;</div></td></tr><tr><td style="font-weight:bold;vertical-align:top">cookies</td><td valign="top">:</td><td><div><table><tr><td style="font-weight:bold;vertical-align:top">session_id_annotatit</td><td valign="top">:</td><td><div>127.0.0.1-e4294da3-7cb4-4bef-afc1-172f62a65b4f<table><tr><td style="font-weight:bold;vertical-align:top">comment</td><td valign="top">:</td><td><div></div></td></tr><tr><td style="font-weight:bold;vertical-align:top">domain</td><td valign="top">:</td><td><div></div></td></tr><tr><td style="font-weight:bold;vertical-align:top">expires</td><td valign="top">:</td><td><div>2592000</div></td></tr><tr><td style="font-weight:bold;vertical-align:top">httponly</td><td valign="top">:</td><td><div></div></td></tr><tr><td style="font-weight:bold;vertical-align:top">max-age</td><td valign="top">:</td><td><div></div></td></tr><tr><td style="font-weight:bold;vertical-align:top">path</td><td valign="top">:</td><td><div>/</div></td></tr><tr><td style="font-weight:bold;vertical-align:top">secure</td><td valign="top">:</td><td><div></div></td></tr><tr><td style="font-weight:bold;vertical-align:top">version</td><td valign="top">:</td><td><div></div></td></tr></table></div></td></tr></table></div></td></tr><tr><td style="font-weight:bold;vertical-align:top">delimiters</td><td valign="top">:</td><td><div><table><tr><td><div>{{</div></td></tr><tr><td><div>}}</div></td></tr></table></div></td></tr><tr><td style="font-weight:bold;vertical-align:top">files</td><td valign="top">:</td><td><div><table><tr><td><div>/AnnotatIt/static/js/jquery.js</div></td></tr><tr><td><div>/AnnotatIt/static/css/calendar.css</div></td></tr><tr><td><div>/AnnotatIt/static/js/calendar.js</div></td></tr><tr><td><div>/AnnotatIt/static/js/web2py.js</div></td></tr><tr><td><div>/AnnotatIt/static/css/web2py.css</div></td></tr><tr><td><div>/AnnotatIt/static/css/bootstrap.min.css</div></td></tr><tr><td><div>/AnnotatIt/static/css/bootstrap-responsive.min.css</div></td></tr><tr><td><div>/AnnotatIt/static/css/web2py_bootstrap.css</div></td></tr></table></div></td></tr><tr><td style="font-weight:bold;vertical-align:top">flash</td><td valign="top">:</td><td><div></div></td></tr><tr><td style="font-weight:bold;vertical-align:top">generic_patterns</td><td valign="top">:</td><td><div><table><tr><td><div>*</div></td></tr></table></div></td></tr><tr><td style="font-weight:bold;vertical-align:top">google_analytics_id</td><td valign="top">:</td><td><div>None</div></td></tr><tr><td style="font-weight:bold;vertical-align:top">headers</td><td valign="top">:</td><td><div><table><tr><td style="font-weight:bold;vertical-align:top">X-Powered-By</td><td valign="top">:</td><td><div>web2py</div></td></tr></table></div></td></tr><tr><td style="font-weight:bold;vertical-align:top">logo</td><td valign="top">:</td><td><div><a class="brand" href="http://www.annotatit.com/"><b>AnnotatIt</b>&trade;&nbsp;</a></div></td></tr><tr><td style="font-weight:bold;vertical-align:top">menu</td><td valign="top">:</td><td><div><table><tr><td><div><table><tr><td><div>Videos</div></td></tr><tr><td><div>False</div></td></tr><tr><td><div>/videos</div></td></tr><tr><td><div><table><tr><td><div><table><tr><td><div>My videos</div></td></tr><tr><td><div>False</div></td></tr><tr><td><div>/my_videos</div></td></tr></table></div></td></tr><tr><td><div><table><tr><td><div>Upload Video</div></td></tr><tr><td><div>False</div></td></tr><tr><td><div>/upload_video</div></td></tr></table></div></td></tr></table></div></td></tr></table></div></td></tr></table></div></td></tr><tr><td style="font-weight:bold;vertical-align:top">meta</td><td valign="top">:</td><td><div><table><tr><td style="font-weight:bold;vertical-align:top">author</td><td valign="top">:</td><td><div>Leonardo M. Rocha &lt;you@example.com&gt;</div></td></tr><tr><td style="font-weight:bold;vertical-align:top">description</td><td valign="top">:</td><td><div>Synchronized Video Annotation</div></td></tr><tr><td style="font-weight:bold;vertical-align:top">generator</td><td valign="top">:</td><td><div>Leonardo M. Rocha</div></td></tr><tr><td style="font-weight:bold;vertical-align:top">keywords</td><td valign="top">:</td><td><div>personal development, leadership, spokesman, video, audio, annotation, social annotation, video annotation, music annotation, music education, online music education, online music video tagging, ergonomy, ergonomy video, ergonomy study, ergonomy tagging, ergonomy analysis, sociology, sociology video, sociology study, sociology tagging, sociology analysis</div></td></tr></table></div></td></tr><tr><td style="font-weight:bold;vertical-align:top">models_to_run</td><td valign="top">:</td><td><div><table><tr><td><div>^\\w+\\.py$</div></td></tr><tr><td><div>^default/\\w+\\.py$</div></td></tr><tr><td><div>^default/view_video/\\w+\\.py$</div></td></tr></table></div></td></tr><tr><td style="font-weight:bold;vertical-align:top">postprocessing</td><td valign="top">:</td><td><div><table></table></div></td></tr><tr><td style="font-weight:bold;vertical-align:top">session_cookie_expires</td><td valign="top">:</td><td><div>None</div></td></tr><tr><td style="font-weight:bold;vertical-align:top">session_data_name</td><td valign="top">:</td><td><div>session_data_annotatit</div></td></tr><tr><td style="font-weight:bold;vertical-align:top">session_file</td><td valign="top">:</td><td><div>&lt;open file &#x27;/home/leo/projects/heroku_projects/annotatit/applications/AnnotatIt/sessions/127.0.0.1-e4294da3-7cb4-4bef-afc1-172f62a65b4f&#x27;, mode &#x27;rb+&#x27; at 0x27d8810&gt;</div></td></tr><tr><td style="font-weight:bold;vertical-align:top">session_filename</td><td valign="top">:</td><td><div>/home/leo/projects/heroku_projects/annotatit/applications/AnnotatIt/sessions/127.0.0.1-e4294da3-7cb4-4bef-afc1-172f62a65b4f</div></td></tr><tr><td style="font-weight:bold;vertical-align:top">session_id</td><td valign="top">:</td><td><div>127.0.0.1-e4294da3-7cb4-4bef-afc1-172f62a65b4f</div></td></tr><tr><td style="font-weight:bold;vertical-align:top">session_id_name</td><td valign="top">:</td><td><div>session_id_annotatit</div></td></tr><tr><td style="font-weight:bold;vertical-align:top">session_locked</td><td valign="top">:</td><td><div>True</div></td></tr><tr><td style="font-weight:bold;vertical-align:top">session_new</td><td valign="top">:</td><td><div>False</div></td></tr><tr><td style="font-weight:bold;vertical-align:top">session_storage_type</td><td valign="top">:</td><td><div>file</div></td></tr><tr><td style="font-weight:bold;vertical-align:top">status</td><td valign="top">:</td><td><div>200</div></td></tr><tr><td style="font-weight:bold;vertical-align:top">subtitle</td><td valign="top">:</td><td><div>Synchronized Video Annotation for Education</div></td></tr><tr><td style="font-weight:bold;vertical-align:top">title</td><td valign="top">:</td><td><div>Annotatit</div></td></tr><tr><td style="font-weight:bold;vertical-align:top">view</td><td valign="top">:</td><td><div>default/view_video.html</div></td></tr></table></div>'
tRp148
sS'locals'
p149
(dp150
S'Service'
p151
S"<class 'gluon.tools.Service'>"
p152
sS'OBJECT'
p153
S"<class 'gluon.html.OBJECT'>"
p154
sS'LOAD'
p155
S'<function LOAD>'
p156
sS'SQLDB'
p157
S"<class 'gluon.dal.DAL'>"
p158
sS'advices'
p159
S'<Rows (0)>'
p160
sg141
S"<Storage {'_formkey[simple_upload_video_form]': ...login]': 'b7b0b17a-0f03-4cec-a2c7-aed6d355e5ad'}>"
p161
sS'LINK'
p162
S"<class 'gluon.html.LINK'>"
p163
sS'BR'
p164
S"<class 'gluon.html.BR'>"
p165
sS'local_import'
p166
S'<function <lambda>>'
p167
sS'OPTGROUP'
p168
S"<class 'gluon.html.OPTGROUP'>"
p169
sS'__package__'
p170
S'None'
p171
sS'PRE'
p172
S"<class 'gluon.html.PRE'>"
p173
sS'IS_INT_IN_RANGE'
p174
S"<class 'gluon.validators.IS_INT_IN_RANGE'>"
p175
sS'left_sidebar_enabled'
p176
S'False'
p177
sS'IS_LOWER'
p178
S"<class 'gluon.validators.IS_LOWER'>"
p179
sS'IS_STRONG'
p180
S"<class 'gluon.validators.IS_STRONG'>"
p181
sS'cache'
p182
S'<gluon.cache.Cache object>'
p183
sS'IS_IN_DB'
p184
S"<class 'gluon.validators.IS_IN_DB'>"
p185
sS'TAG'
p186
S'<gluon.html.__TAG__ object>'
p187
sS'SQLField'
p188
S"<class 'gluon.dal.Field'>"
p189
sS'mail'
p190
S'<gluon.tools.Mail object>'
p191
sS'BODY'
p192
S"<class 'gluon.html.BODY'>"
p193
sS'IS_DATE_IN_RANGE'
p194
S"<class 'gluon.validators.IS_DATE_IN_RANGE'>"
p195
sS'IFRAME'
p196
S"<class 'gluon.html.IFRAME'>"
p197
sS'URL'
p198
S'<function URL>'
p199
sS'__file__'
p200
S"'/home/leo/projects/heroku_projects/annotatit/applications/AnnotatIt/views/default/view_video.html'"
p201
sS'db'
p202
S'<DAL uri="sqlite://heroku.test.sqlite">'
p203
sS'auth'
p204
S'<gluon.tools.Auth object>'
p205
sS'P'
S"<class 'gluon.html.P'>"
p206
sS'TFOOT'
p207
S"<class 'gluon.html.TFOOT'>"
p208
sS'XHTML'
p209
S"<class 'gluon.html.XHTML'>"
p210
sS'datetime'
p211
S"<type 'datetime.datetime'>"
p212
sS'ON'
p213
S'True'
p214
sS'OL'
p215
S"<class 'gluon.html.OL'>"
p216
sS'TEXTAREA'
p217
S"<class 'gluon.html.TEXTAREA'>"
p218
sS'MENU'
p219
S"<class 'gluon.html.MENU'>"
p220
sS'WEBMASTERS_EMAIL_NAME'
p221
S"'leo.m.rocha'"
p222
sS'IS_IMAGE'
p223
S"<class 'gluon.validators.IS_IMAGE'>"
p224
sS'DIV'
p225
S"<class 'gluon.html.DIV'>"
p226
sS'_admin_menu'
p227
S'<function _admin_menu>'
p228
sS'CODE'
p229
S"<class 'gluon.html.CODE'>"
p230
sS'HTTP'
p231
S"<class 'gluon.http.HTTP'>"
p232
sS'HR'
p233
S"<class 'gluon.html.HR'>"
p234
sS'IS_DATETIME'
p235
S"<class 'gluon.validators.IS_DATETIME'>"
p236
sS'STYLE'
p237
S"<class 'gluon.html.STYLE'>"
p238
sS'LABEL'
p239
S"<class 'gluon.html.LABEL'>"
p240
sS'CLEANUP'
p241
S"<class 'gluon.validators.CLEANUP'>"
p242
sS'video'
p243
S"<Row {'subtitle': '', 'title': 'Antony, discours...me': datetime.datetime(2013, 5, 17, 18, 21, 27)}>"
p244
sS'plugins'
p245
S'<gluon.tools.PluginManager object>'
p246
sS'SELECT'
p247
S"<class 'gluon.html.SELECT'>"
p248
sS'CENTER'
p249
S"<class 'gluon.html.CENTER'>"
p250
sS'prettydate'
p251
S'<function prettydate>'
p252
sS'Crud'
p253
S"<class 'gluon.tools.Crud'>"
p254
sS'Auth'
p255
S"<class 'gluon.tools.Auth'>"
p256
sS'__builtins__'
p257
S"{'ArithmeticError': <type 'exceptions.ArithmeticError'>, 'AssertionError': <type 'exceptions.AssertionError'>, 'AttributeError': <type 'exceptions.AttributeError'>, 'BaseException': <type 'exceptions.BaseException'>, 'BufferError': <type 'exceptions.BufferError'>, 'BytesWarning': <type 'exceptions.BytesWarning'>, 'DeprecationWarning': <type 'exceptions.DeprecationWarning'>, 'EOFError': <type 'exceptions.EOFError'>, 'Ellipsis': Ellipsis, 'EnvironmentError': <type 'exceptions.EnvironmentError'>, ...}"
p258
sS'HTML'
p259
S"<class 'gluon.html.HTML'>"
p260
sS'SQLFORM'
p261
S"<class 'gluon.sqlhtml.SQLFORM'>"
p262
sS'EM'
p263
S"<class 'gluon.html.EM'>"
p264
sS'redirect'
p265
S'<function redirect>'
p266
sS'FIELDSET'
p267
S"<class 'gluon.html.FIELDSET'>"
p268
sS'IS_EQUAL_TO'
p269
S"<class 'gluon.validators.IS_EQUAL_TO'>"
p270
sS'embed64'
p271
S'<function embed64>'
p272
sS'IS_LIST_OF'
p273
S"<class 'gluon.validators.IS_LIST_OF'>"
p274
sS'INPUT'
p275
S"<class 'gluon.html.INPUT'>"
p276
sS'EMBED'
p277
S"<class 'gluon.html.EMBED'>"
p278
sS'APP_DOMAIN_NAME'
p279
S"'AnnotatIt.com'"
p280
sS'H2'
p281
S"<class 'gluon.html.H2'>"
p282
sS'H3'
p283
S"<class 'gluon.html.H3'>"
p284
sS'BUTTON'
p285
S"<class 'gluon.html.BUTTON'>"
p286
sS'H1'
p287
S"<class 'gluon.html.H1'>"
p288
sS'H6'
p289
S"<class 'gluon.html.H6'>"
p290
sS'H4'
p291
S"<class 'gluon.html.H4'>"
p292
sS'H5'
p293
S"<class 'gluon.html.H5'>"
p294
sS'UL'
p295
S"<class 'gluon.html.UL'>"
p296
sS'get_db'
p297
S'<function get_db>'
p298
sS'IS_UPPER'
p299
S"<class 'gluon.validators.IS_UPPER'>"
p300
sS'xmlescape'
p301
S'<function xmlescape>'
p302
sS'IS_TIME'
p303
S"<class 'gluon.validators.IS_TIME'>"
p304
sS'OPTION'
p305
S"<class 'gluon.html.OPTION'>"
p306
sS'WEBMASTERS_EMAIL'
p307
S"'leo.m.rocha@gmail.com'"
p308
sS'TITLE'
p309
S"<class 'gluon.html.TITLE'>"
p310
sS'CRYPT'
p311
S"<class 'gluon.validators.CRYPT'>"
p312
sS'IS_EMPTY_OR'
p313
S"<class 'gluon.validators.IS_EMPTY_OR'>"
p314
sS'MARKMIN'
p315
S"<class 'gluon.html.MARKMIN'>"
p316
sS'__name__'
p317
S"'__restricted__'"
p318
sS'STRONG'
p319
S"<class 'gluon.html.STRONG'>"
p320
sS'COL'
p321
S"<class 'gluon.html.COL'>"
p322
sS'service'
p323
S'<gluon.tools.Service object>'
p324
sS'SCRIPT'
p325
S"<class 'gluon.html.SCRIPT'>"
p326
sS'is_mobile'
p327
g177
sS'TABLE'
p328
S"<class 'gluon.html.TABLE'>"
p329
sS'IS_IPV4'
p330
S"<class 'gluon.validators.IS_IPV4'>"
p331
sS'IS_LENGTH'
p332
S"<class 'gluon.validators.IS_LENGTH'>"
p333
sS'IS_IPV6'
p334
S"<class 'gluon.validators.IS_IPV6'>"
p335
sS'XML'
p336
S"<class 'gluon.html.XML'>"
p337
sS'B'
S"<class 'gluon.html.B'>"
p338
sS'IMG'
p339
S"<class 'gluon.html.IMG'>"
p340
sS'SQLTABLE'
p341
S"<class 'gluon.sqlhtml.SQLTABLE'>"
p342
sS'IS_MATCH'
p343
S"<class 'gluon.validators.IS_MATCH'>"
p344
sS'IS_ALPHANUMERIC'
p345
S"<class 'gluon.validators.IS_ALPHANUMERIC'>"
p346
sS'SPAN'
p347
S"<class 'gluon.html.SPAN'>"
p348
sS'IS_JSON'
p349
S"<class 'gluon.validators.IS_JSON'>"
p350
sS'suggested_tags'
p351
S"[{'fields': ['QUESTION', 'OK', 'WARNING', 'BAD'], 'name': 'Voice'}, {'fields': ['QUESTION', 'OK', 'WARNING', 'BAD'], 'name': 'Gestual'}, {'fields': ['QUESTION', 'OK', 'WARNING', 'BAD'], 'name': 'Look'}, {'fields': ['QUESTION', 'OK', 'WARNING', 'BAD'], 'name': 'Space Use'}, {'fields': ['QUESTION', 'WARNING', 'BAD'], 'name': 'Hesitation'}]"
p352
sS'IS_SLUG'
p353
S"<class 'gluon.validators.IS_SLUG'>"
p354
sS'BEAUTIFY'
p355
S"<class 'gluon.html.BEAUTIFY'>"
p356
sS'META'
p357
S"<class 'gluon.html.META'>"
p358
sS'icount'
p359
S'5'
sS'IS_DATE'
p360
S"<class 'gluon.validators.IS_DATE'>"
p361
sS'IS_EMAIL'
p362
S"<class 'gluon.validators.IS_EMAIL'>"
p363
sS'IS_NOT_EMPTY'
p364
S"<class 'gluon.validators.IS_NOT_EMPTY'>"
p365
sS'IS_FLOAT_IN_RANGE'
p366
S"<class 'gluon.validators.IS_FLOAT_IN_RANGE'>"
p367
sS'TBODY'
p368
S"<class 'gluon.html.TBODY'>"
p369
sS'CAT'
p370
S"<class 'gluon.html.CAT'>"
p371
sS'Field'
p372
S"<class 'gluon.dal.Field'>"
p373
sS'tag'
p374
S"'BAD'"
p375
sS'middle_columns'
p376
S"'span9'"
p377
sS'_guest_menu'
p378
S'<function _guest_menu>'
p379
sS'LEGEND'
p380
S"<class 'gluon.html.LEGEND'>"
p381
sS'APP_NAME'
p382
S"'AnnotatIt'"
p383
sS'COLGROUP'
p384
S"<class 'gluon.html.COLGROUP'>"
p385
sS'DAL'
p386
S"<class 'gluon.dal.DAL'>"
p387
sS'TT'
p388
S"<class 'gluon.html.TT'>"
p389
sS'TR'
p390
S"<class 'gluon.html.TR'>"
p391
sS'_auth_user_menu'
p392
S'<function _auth_user_menu>'
p393
sS'LI'
p394
S"<class 'gluon.html.LI'>"
p395
sS'right_sidebar_enabled'
p396
g214
sS'TH'
p397
S"<class 'gluon.html.TH'>"
p398
sS'TD'
p399
S"<class 'gluon.html.TD'>"
p400
sS'PluginManager'
p401
S"<class 'gluon.tools.PluginManager'>"
p402
sS'IS_URL'
p403
S"<class 'gluon.validators.IS_URL'>"
p404
sS'A'
S"<class 'gluon.html.A'>"
p405
sS'HEAD'
p406
S"<class 'gluon.html.HEAD'>"
p407
sS'IS_DATETIME_IN_RANGE'
p408
S"<class 'gluon.validators.IS_DATETIME_IN_RANGE'>"
p409
sS'FORM'
p410
S"<class 'gluon.html.FORM'>"
p411
sS'I'
S"<class 'gluon.html.I'>"
p412
sS'crud'
p413
S'<gluon.tools.Crud object>'
p414
sS'IS_NOT_IN_DB'
p415
S"<class 'gluon.validators.IS_NOT_IN_DB'>"
p416
sg147
S"<Storage {'body': <cStringIO.StringO object at 0...t 0x2b362a8>, 'view': 'default/view_video.html'}>"
p417
sS'WEBMASTERS_EMAIL_DOMAIN'
p418
S"'gmail.com'"
p419
sS'THEAD'
p420
S"<class 'gluon.html.THEAD'>"
p421
sS'ANY_OF'
p422
S"<class 'gluon.validators.ANY_OF'>"
p423
sS'IS_NULL_OR'
p424
S"<class 'gluon.validators.IS_EMPTY_OR'>"
p425
sg56
S"<Storage {'function': 'view_video', 'body': <cSt...ications/AnnotatIt/', 'post_vars': <Storage {}>}>"
p426
sS'IS_EXPR'
p427
S"<class 'gluon.validators.IS_EXPR'>"
p428
sS'T'
S'<gluon.languages.translator object>'
p429
sS'st'
p430
S"{'fields': ['QUESTION', 'WARNING', 'BAD'], 'name': 'Hesitation'}"
p431
sS'IS_IN_SET'
p432
S"<class 'gluon.validators.IS_IN_SET'>"
p433
sS'IS_UPLOAD_FILENAME'
p434
S"<class 'gluon.validators.IS_UPLOAD_FILENAME'>"
p435
sS'time'
p436
S"<module 'time' (built-in)>"
p437
sS'IS_DECIMAL_IN_RANGE'
p438
S"<class 'gluon.validators.IS_DECIMAL_IN_RANGE'>"
p439
sssS'traceback'
p440
S'Traceback (most recent call last):\n  File "/home/leo/projects/heroku_projects/annotatit/gluon/restricted.py", line 212, in restricted\n    exec ccode in environment\n  File "/home/leo/projects/heroku_projects/annotatit/applications/AnnotatIt/views/default/view_video.html", line 171, in <module>\n    function updatePlayerInfo() {\nAttributeError: \'Row\' object has no attribute \'youtube_video_id\'\n'
p441
s.