(dp1
S'output'
p2
S"<type 'exceptions.SyntaxError'> invalid syntax (default.py, line 113)"
p3
sS'layer'
p4
S'/home/leo/projects/heroku_projects/annotatit/applications/AnnotatIt/controllers/default.py'
p5
sS'code'
p6
S'# -*- coding: utf-8 -*-\n# this file is released under public domain and you can use without limitations\n\n#########################################################################\n## This is a samples controller\n## - index is the default action of any application\n## - user is required for authentication and authorization\n## - download is for downloading files uploaded in the db (does streaming)\n## - call exposes all registered services (none by default)\n#########################################################################\nfrom urlparse import urlparse, parse_qs\n\nimport os, sys\n\ndef index():\n    """\n    example action using the internationalization operator T and flash\n    rendered by views/default/index.html or views/generic.html\n\n    if you need a simple wiki simple replace the two lines below with:\n    return auth.wiki()\n    """\n    return dict()\n\n\n#########################################################################\n#Login Not needed\n#########################################################################\n@auth.requires_login()\ndef videos_by():\n    """\n    Shows the list of My uploaded videos,\n    And options to update, modify and erase them\n    """\n    #check that the user has permission to see what he sees\n    #if(not auth.user):\n    #    redirect(URL(\'index\'))\n    \n    user_id = request.args(0, cast=int)#youtube user id\n    _videos = db(db.youtube_videos.person_id == user_id).select()\n    #TODO should check also for permissions of the user cheking the video\n    \n    return dict(\n                videos = _videos,\n                )\n\n\n\n\n\n#########################################################################\n#Login Required\n#########################################################################\n\n@auth.requires_login()\ndef videos():\n    """\n    Shows me a list of all the videos I have the right to see\n    """\n    #if(not auth.user):\n    #    redirect(URL(\'index\'))\n    _videos = db(db.youtube_videos.person_id == auth.user_id).select()\n    \n    return dict(\n                videos = _videos,\n                )\n\n@auth.requires_login()\ndef my_videos():\n    """\n    Shows the list of My uploaded videos,\n    And options to update, modify and erase them\n    """\n    #if(not auth.user):\n    #    redirect(URL(\'index\'))\n    _videos = db(db.youtube_videos.person_id == auth.user_id).select()\n    \n    return dict(\n                videos = _videos,\n                )\n\n\n\n@auth.requires_login()\ndef upload_video():\n    """\n    Form to upload a new video (in fact, for the moment is only add a video from youtube)\n    """\n    uform=FORM(\'Video Link: \',\n              INPUT(_name=\'title\', requires=IS_NOT_EMPTY()),\n              INPUT(_name=\'link\', requires=IS_NOT_EMPTY()),\n              INPUT(_type=\'submit\'),\n              formname=\'simple_upload_video_form\')\n    if uform.process(formname=\'simple_upload_video_form\').accepted:\n        os.system("echo \'upload form fields: "+str(uform.vars)+" \'")\n        #TODO Check if it is ID or web address\n        #url_parsed = urlparse(uform.vars.youtube_video_id)\n        url_data = urlparse(uform.vars.link)\n        os.system("echo \'url_data: "+str(url_data)+" \'")\n        #now check if youtube or vimeo\n        if (url_data[1].lower().find("youtube") >=0 ):\n            query = parse_qs(url_data.query)\n            os.system("echo \'query: "+str(query)+" \'")\n            video_id = query["v"][0]\n            #save in DB\n            db.youtube_videos.insert(title = uform.vars.title,\n                                     youtube_video_id= video_id,\n                                    )\n        elif (url_data[1].lower().find("vimeo") >=0 ):\n            ##treat like youtube and save data on youtube db Table\n            query = parse_qs(url_data.query)\n            os.system("echo \'query: "+str(query)+" \'"\n        else:\n            #fail!!\n            pass\n        #response.flash = \'form accepted\'\n        #TODO redirect to the video page with the right video ID\n        #next_page = URL(\'view_video\',args=uform.youtube_video_id)\n        #redirect(next_page)\n        pass\n    elif uform.errors:\n        response.flash = \'form has errors, please check\'\n    else:\n        #response.flash = \'please fill out the form\'\n        pass\n    return dict(\n                upload_form = uform,\n                )\n\n\n#############################\n#AJAX calls\n#############################\n\ndef get_tags():\n    """\n    ajax call for the view_video view for commenting on a video \n    with the fast annotation system\n    """\n    if (request.vars.video_id):\n        rows = db(db.tag.video_id == request.vars.video_id).select();\n        return response.json(rows)\n    else:\n        return None\n\n\ndef get_comments():\n    """\n    ajax call for the view_video view for commenting on a video \n    with the fast annotation system\n    """\n    if (request.vars.video_id):\n        rows = db(db.annotations.video_id == request.vars.video_id).select();\n        return response.json(rows)\n    else:\n        return None\n\n\n@auth.requires_login() \ndef post_annotation():\n    """\n    ajax call for the view_video view for commenting on a video\n    """\n    form = SQLFORM(db.annotations,showid = False,\n                    fields=[\'video_id\',\'video_time\', \'comment\'],)\n    form.vars.annotator_id = auth.user_id\n    if form.accepts(request, formname=None):\n        response.flash = T(\'Your comment has been successfully posted\')\n        #return DIV(T("Comment posted"))\n        #return DIV(BEAUTIFY(form.vars))\n        return None\n    elif form.errors:\n        return TABLE(*[TR(k, v) for k, v in form.errors.items()])\n\n\n@auth.requires_login() \ndef post_advice():\n    """\n    ajax call for the view_video view for commenting on a video\n    """\n    form = SQLFORM(db.advice,showid = False,\n                    fields=[ \'advice_text\'],)\n    #os.system("echo advice vars: \'"+str(request.vars)+"\'")\n    form.vars.annotator_id = auth.user_id\n    form.vars.video_id = request.vars.annotation_video_id\n    if form.accepts(request, formname=None):\n        response.flash = T(\'Your advice has been successfully posted\')\n        #return DIV(T("Comment posted"))\n        #return DIV(BEAUTIFY(form.vars))\n        return None\n    elif form.errors:\n        return TABLE(*[TR(k, v) for k, v in form.errors.items()])\n\n@auth.requires_login()\ndef post_tag():\n    """\n    ajax call for the view_video view for commenting on a video \n    with the fast annotation system\n    """\n    form = SQLFORM(db.tag,showid = False,\n                    fields=[\'tag_type_name\', \'video_id\',\'evaluation\',\'video_time\'],)\n    form.vars.annotator_id = auth.user_id\n    #os.system("echo ontag vars: \'"+str(form.vars)+"\'")\n    if form.accepts(request, formname=None):\n        response.flash = T(\'Tagged\')\n        #return DIV(T("Comment posted"))\n        #return DIV(BEAUTIFY(form.vars))\n        return None\n    elif form.errors:\n        return TABLE(*[TR(k, v) for k, v in form.errors.items()])\n\n\n@auth.requires_login()\ndef modify_comment():\n    """\n    ajax call for the view_video view for modifying a fast commenting on a video \n    with the fast annotation system\n    """\n    #TODO\n    #check the user is the one who created the comment or tag\n    \n    pass\n    \n@auth.requires_login()\ndef delete_comment():\n    """\n    ajax call for the view_video view for deleting a fast commenting on a video \n    with the fast annotation system\n    """\n    #check the user is the one who created the comment or tag or the owner of the video\n    #TODO\n    pass\n\n@auth.requires_login()\ndef modify_tag():\n    """\n    ajax call for the view_video view for modifying a fast commenting on a video \n    with the fast annotation system\n    """\n    #TODO\n    #check the user is the one who created the comment or tag\n    \n    pass\n    \n@auth.requires_login()\ndef delete_tag():\n    """\n    ajax call for the view_video view for deleting a fast commenting on a video \n    with the fast annotation system\n    """\n    #check the user is the one who created the comment or tag or the owner of the video\n    #TODO\n    pass\n    \n    \n#############################\n#############################\n\n#@auth.requires_login() #TODO make user authentication control here!!! .. for the moment a link is needed\ndef view_video():\n    """\n    Shows the list of uploaded videos\n    """\n    #if(not auth.user):\n    #    redirect(URL(\'index\'))\n    _video_id = request.args(0, cast=str)#youtube videoID\n    \n    _video = db.youtube_videos(db.youtube_videos.youtube_video_id == _video_id)\n    #os.system("echo \'video.id =  "+str(_video.id)+"\'")\n    #_annotations = db(db.annotations.video_id == _video.id).select(orderby=db.annotations.video_time)\n    _advices = db(db.advice.video_id == _video.id).select()\n    _suggested_tags = [{\'name\': \'Voice\', \'fields\': [\'QUESTION\',\'OK\', \'WARNING\', \'BAD\'] } ,\n                       { \'name\':\'Gestual\', \'fields\': [\'QUESTION\',\'OK\', \'WARNING\', \'BAD\']} , \n                       { \'name\':\'Look\', \'fields\': [\'QUESTION\',\'OK\', \'WARNING\', \'BAD\']} ,\n                       { \'name\':\'Space Use\', \'fields\': [\'QUESTION\',\'OK\', \'WARNING\', \'BAD\']} , \n                       { \'name\':\'Hesitation\', \'fields\': [\'QUESTION\', \'WARNING\', \'BAD\']}\n                      ] #TODO this should come from DB and be more detailed about the fields (OK, Warning, Bad, don\'t know yet). should be passed as JSON\n    #os.system("echo \'annotations =  "+str(_annotations)+"\'")\n    #check for permissions of individual and group to actually see the video, else show not allowed \n    """ #changed to act on ajax instead of form\n    aform = SQLFORM(db.annotations, showid = False,\n                    fields=[\'video_time\', \'comment\'],\n                    formname=\'comment_form\', submit_button = \'Comment\')\n                    #formstyle=\'div\', formname=\'comment_form\', submit_button = \'Upload\')\n    aform.vars.video_id = _video_id\n    if aform.process(formname=\'comment_form\').accepted:\n        pass\n        #response.flash = \'form accepted\'\n        #TODO AJAX add the comment to DB\n        #TODO AJAX add the comment to the current page\n    elif aform.errors:\n        response.flash = \'form has errors, please check\'\n    else:\n        #response.flash = \'please fill out the form\'\n        pass\n    """\n    return dict(\n                video = _video,\n                #annotations = _annotations,\n                advices = _advices,\n                #annotation_form = aform\n                suggested_tags = _suggested_tags,\n                )\n\n\n\n\n\n\n#########################################################################\n#########################################################################\ndef user():\n    """\n    exposes:\n    http://..../[app]/default/user/login\n    http://..../[app]/default/user/logout\n    http://..../[app]/default/user/register\n    http://..../[app]/default/user/profile\n    http://..../[app]/default/user/retrieve_password\n    http://..../[app]/default/user/change_password\n    use @auth.requires_login()\n        @auth.requires_membership(\'group name\')\n        @auth.requires_permission(\'read\',\'table name\',record_id)\n    to decorate functions that need access control\n    """\n    return dict(form=auth())\n\n\ndef download():\n    """\n    allows downloading of uploaded files\n    http://..../[app]/default/download/[filename]\n    """\n    return response.download(request, db)\n\n\ndef call():\n    """\n    exposes services. for example:\n    http://..../[app]/default/call/jsonrpc\n    decorate with @services.jsonrpc the functions to expose\n    supports xml, json, xmlrpc, jsonrpc, amfrpc, rss, csv\n    """\n    return service()\n\n\n@auth.requires_signature()\ndef data():\n    """\n    http://..../[app]/default/data/tables\n    http://..../[app]/default/data/create/[table]\n    http://..../[app]/default/data/read/[table]/[id]\n    http://..../[app]/default/data/update/[table]/[id]\n    http://..../[app]/default/data/delete/[table]/[id]\n    http://..../[app]/default/data/select/[table]\n    http://..../[app]/default/data/search/[table]\n    but URLs must be signed, i.e. linked with\n      A(\'table\',_href=URL(\'data/tables\',user_signature=True))\n    or with the signed load operator\n      LOAD(\'default\',\'data.load\',args=\'tables\',ajax=True,user_signature=True)\n    """\n    return dict(form=crud())\n\nresponse._vars=response._caller(upload_video)\n'
p7
sS'snapshot'
p8
(dp9
S'exception'
p10
(dp11
S'__getslice__'
p12
S"<method-wrapper '__getslice__' of exceptions.SyntaxError object>"
p13
sS'text'
p14
S"'        else:\\n'"
p15
sS'__str__'
p16
S"<method-wrapper '__str__' of exceptions.SyntaxError object>"
p17
sS'__reduce__'
p18
S'<built-in method __reduce__ of exceptions.SyntaxError object>'
p19
sS'__dict__'
p20
S'{}'
p21
sS'__sizeof__'
p22
S'<built-in method __sizeof__ of exceptions.SyntaxError object>'
p23
sS'__init__'
p24
S"<method-wrapper '__init__' of exceptions.SyntaxError object>"
p25
sS'__setattr__'
p26
S"<method-wrapper '__setattr__' of exceptions.SyntaxError object>"
p27
sS'__reduce_ex__'
p28
S'<built-in method __reduce_ex__ of exceptions.SyntaxError object>'
p29
sS'__new__'
p30
S'<built-in method __new__ of type object>'
p31
sS'__format__'
p32
S'<built-in method __format__ of exceptions.SyntaxError object>'
p33
sS'__class__'
p34
S"<type 'exceptions.SyntaxError'>"
p35
sS'filename'
p36
S"'/home/leo/projects/heroku_projects/annotatit/applications/AnnotatIt/controllers/default.py'"
p37
sS'lineno'
p38
S'113'
p39
sS'msg'
p40
S"'invalid syntax'"
p41
sS'__doc__'
p42
S"'Invalid syntax.'"
p43
sS'__getitem__'
p44
S"<method-wrapper '__getitem__' of exceptions.SyntaxError object>"
p45
sS'__setstate__'
p46
S'<built-in method __setstate__ of exceptions.SyntaxError object>'
p47
sS'__getattribute__'
p48
S"<method-wrapper '__getattribute__' of exceptions.SyntaxError object>"
p49
sS'print_file_and_line'
p50
S'None'
p51
sS'args'
p52
S"('invalid syntax', ('/home/leo/projects/heroku_projects/annotatit/applications/AnnotatIt/controllers/default.py', 113, 12, '        else:\\n'))"
p53
sS'__subclasshook__'
p54
S'<built-in method __subclasshook__ of type object>'
p55
sS'offset'
p56
S'12'
p57
sS'__unicode__'
p58
S'<built-in method __unicode__ of exceptions.SyntaxError object>'
p59
sS'__delattr__'
p60
S"<method-wrapper '__delattr__' of exceptions.SyntaxError object>"
p61
sS'__repr__'
p62
S"<method-wrapper '__repr__' of exceptions.SyntaxError object>"
p63
sS'__hash__'
p64
S"<method-wrapper '__hash__' of exceptions.SyntaxError object>"
p65
ssS'evalue'
p66
S'invalid syntax (default.py, line 113)'
p67
sS'request'
p68
cgluon.html
XML_unpickle
p69
(S's\x18J\x00\x00<div><table><tr><td style="font-weight:bold;vertical-align:top">ajax</td><td valign="top">:</td><td><div>False</div></td></tr><tr><td style="font-weight:bold;vertical-align:top">application</td><td valign="top">:</td><td><div>AnnotatIt</div></td></tr><tr><td style="font-weight:bold;vertical-align:top">args</td><td valign="top">:</td><td><div><table></table></div></td></tr><tr><td style="font-weight:bold;vertical-align:top">body</td><td valign="top">:</td><td><div>&lt;cStringIO.StringO object at 0x23f13e8&gt;</div></td></tr><tr><td style="font-weight:bold;vertical-align:top">cid</td><td valign="top">:</td><td><div>None</div></td></tr><tr><td style="font-weight:bold;vertical-align:top">client</td><td valign="top">:</td><td><div>127.0.0.1</div></td></tr><tr><td style="font-weight:bold;vertical-align:top">controller</td><td valign="top">:</td><td><div>default</div></td></tr><tr><td style="font-weight:bold;vertical-align:top">cookies</td><td valign="top">:</td><td><div><table><tr><td style="font-weight:bold;vertical-align:top">session_id_admin</td><td valign="top">:</td><td><div>127.0.0.1-8065b2d9-5e99-4b2d-9c69-79320a80c1d3<table><tr><td style="font-weight:bold;vertical-align:top">comment</td><td valign="top">:</td><td><div></div></td></tr><tr><td style="font-weight:bold;vertical-align:top">domain</td><td valign="top">:</td><td><div></div></td></tr><tr><td style="font-weight:bold;vertical-align:top">expires</td><td valign="top">:</td><td><div></div></td></tr><tr><td style="font-weight:bold;vertical-align:top">httponly</td><td valign="top">:</td><td><div></div></td></tr><tr><td style="font-weight:bold;vertical-align:top">max-age</td><td valign="top">:</td><td><div></div></td></tr><tr><td style="font-weight:bold;vertical-align:top">path</td><td valign="top">:</td><td><div></div></td></tr><tr><td style="font-weight:bold;vertical-align:top">secure</td><td valign="top">:</td><td><div></div></td></tr><tr><td style="font-weight:bold;vertical-align:top">version</td><td valign="top">:</td><td><div></div></td></tr></table></div></td></tr><tr><td style="font-weight:bold;vertical-align:top">session_id_annotatit</td><td valign="top">:</td><td><div>127.0.0.1-e4294da3-7cb4-4bef-afc1-172f62a65b4f<table><tr><td style="font-weight:bold;vertical-align:top">comment</td><td valign="top">:</td><td><div></div></td></tr><tr><td style="font-weight:bold;vertical-align:top">domain</td><td valign="top">:</td><td><div></div></td></tr><tr><td style="font-weight:bold;vertical-align:top">expires</td><td valign="top">:</td><td><div></div></td></tr><tr><td style="font-weight:bold;vertical-align:top">httponly</td><td valign="top">:</td><td><div></div></td></tr><tr><td style="font-weight:bold;vertical-align:top">max-age</td><td valign="top">:</td><td><div></div></td></tr><tr><td style="font-weight:bold;vertical-align:top">path</td><td valign="top">:</td><td><div></div></td></tr><tr><td style="font-weight:bold;vertical-align:top">secure</td><td valign="top">:</td><td><div></div></td></tr><tr><td style="font-weight:bold;vertical-align:top">version</td><td valign="top">:</td><td><div></div></td></tr></table></div></td></tr><tr><td style="font-weight:bold;vertical-align:top">session_id_shybreaker</td><td valign="top">:</td><td><div>127.0.0.1-88bacb70-274e-4d14-8468-5f836e1a38df<table><tr><td style="font-weight:bold;vertical-align:top">comment</td><td valign="top">:</td><td><div></div></td></tr><tr><td style="font-weight:bold;vertical-align:top">domain</td><td valign="top">:</td><td><div></div></td></tr><tr><td style="font-weight:bold;vertical-align:top">expires</td><td valign="top">:</td><td><div></div></td></tr><tr><td style="font-weight:bold;vertical-align:top">httponly</td><td valign="top">:</td><td><div></div></td></tr><tr><td style="font-weight:bold;vertical-align:top">max-age</td><td valign="top">:</td><td><div></div></td></tr><tr><td style="font-weight:bold;vertical-align:top">path</td><td valign="top">:</td><td><div></div></td></tr><tr><td style="font-weight:bold;vertical-align:top">secure</td><td valign="top">:</td><td><div></div></td></tr><tr><td style="font-weight:bold;vertical-align:top">version</td><td valign="top">:</td><td><div></div></td></tr></table></div></td></tr></table></div></td></tr><tr><td style="font-weight:bold;vertical-align:top">env</td><td valign="top">:</td><td><div><table><tr><td style="font-weight:bold;vertical-align:top">app_folders</td><td valign="top">:</td><td><div>set([&#x27;/home/leo/projects/heroku_projects/annotatit/applications/admin/&#x27;, &#x27;/home/leo/projects/heroku_projects/annotatit/applications/AnnotatIt/&#x27;])</div></td></tr><tr><td style="font-weight:bold;vertical-align:top">applications_parent</td><td valign="top">:</td><td><div>/home/leo/projects/heroku_projects/annotatit</div></td></tr><tr><td style="font-weight:bold;vertical-align:top">db_sessions</td><td valign="top">:</td><td><div>set([])</div></td></tr><tr><td style="font-weight:bold;vertical-align:top">debugging</td><td valign="top">:</td><td><div>False</div></td></tr><tr><td style="font-weight:bold;vertical-align:top">gluon_parent</td><td valign="top">:</td><td><div>/home/leo/projects/heroku_projects/annotatit</div></td></tr><tr><td style="font-weight:bold;vertical-align:top">gunicorn_socket</td><td valign="top">:</td><td><div>&lt;socket._socketobject object at 0x22e6670&gt;</div></td></tr><tr><td style="font-weight:bold;vertical-align:top">http_accept</td><td valign="top">:</td><td><div>text/html,application/xhtml+xml,application/xml;q=0.9,*/*;q=0.8</div></td></tr><tr><td style="font-weight:bold;vertical-align:top">http_accept_charset</td><td valign="top">:</td><td><div>ISO-8859-1,utf-8;q=0.7,*;q=0.3</div></td></tr><tr><td style="font-weight:bold;vertical-align:top">http_accept_encoding</td><td valign="top">:</td><td><div>gzip,deflate,sdch</div></td></tr><tr><td style="font-weight:bold;vertical-align:top">http_accept_language</td><td valign="top">:</td><td><div>en-US,en;q=0.8,fr;q=0.6,es;q=0.4</div></td></tr><tr><td style="font-weight:bold;vertical-align:top">http_connection</td><td valign="top">:</td><td><div>keep-alive</div></td></tr><tr><td style="font-weight:bold;vertical-align:top">http_cookie</td><td valign="top">:</td><td><div>session_id_shybreaker=127.0.0.1-88bacb70-274e-4d14-8468-5f836e1a38df; session_id_admin=127.0.0.1-8065b2d9-5e99-4b2d-9c69-79320a80c1d3; session_id_annotatit=127.0.0.1-e4294da3-7cb4-4bef-afc1-172f62a65b4f</div></td></tr><tr><td style="font-weight:bold;vertical-align:top">http_host</td><td valign="top">:</td><td><div>127.0.0.1:5000</div></td></tr><tr><td style="font-weight:bold;vertical-align:top">http_user_agent</td><td valign="top">:</td><td><div>Mozilla/5.0 (X11; Linux x86_64) AppleWebKit/537.31 (KHTML, like Gecko) Chrome/26.0.1410.63 Safari/537.31</div></td></tr><tr><td style="font-weight:bold;vertical-align:top">is_jython</td><td valign="top">:</td><td><div>False</div></td></tr><tr><td style="font-weight:bold;vertical-align:top">is_pypy</td><td valign="top">:</td><td><div>False</div></td></tr><tr><td style="font-weight:bold;vertical-align:top">local_hosts</td><td valign="top">:</td><td><div><table><tr><td><div>cotita</div></td></tr><tr><td><div>::1</div></td></tr><tr><td><div>127.0.1.1</div></td></tr><tr><td><div>::ffff:127.0.0.1</div></td></tr><tr><td><div>127.0.0.1</div></td></tr></table></div></td></tr><tr><td style="font-weight:bold;vertical-align:top">path_info</td><td valign="top">:</td><td><div>/upload_video</div></td></tr><tr><td style="font-weight:bold;vertical-align:top">query_string</td><td valign="top">:</td><td><div></div></td></tr><tr><td style="font-weight:bold;vertical-align:top">raw_uri</td><td valign="top">:</td><td><div>/upload_video</div></td></tr><tr><td style="font-weight:bold;vertical-align:top">remote_addr</td><td valign="top">:</td><td><div>127.0.0.1</div></td></tr><tr><td style="font-weight:bold;vertical-align:top">remote_port</td><td valign="top">:</td><td><div>33202</div></td></tr><tr><td style="font-weight:bold;vertical-align:top">request_method</td><td valign="top">:</td><td><div>GET</div></td></tr><tr><td style="font-weight:bold;vertical-align:top">request_uri</td><td valign="top">:</td><td><div>/AnnotatIt/default/upload_video</div></td></tr><tr><td style="font-weight:bold;vertical-align:top">script_name</td><td valign="top">:</td><td><div></div></td></tr><tr><td style="font-weight:bold;vertical-align:top">server_name</td><td valign="top">:</td><td><div>127.0.0.1</div></td></tr><tr><td style="font-weight:bold;vertical-align:top">server_port</td><td valign="top">:</td><td><div>5000</div></td></tr><tr><td style="font-weight:bold;vertical-align:top">server_protocol</td><td valign="top">:</td><td><div>HTTP/1.1</div></td></tr><tr><td style="font-weight:bold;vertical-align:top">server_software</td><td valign="top">:</td><td><div>gunicorn/0.17.2</div></td></tr><tr><td style="font-weight:bold;vertical-align:top">web2py_crontype</td><td valign="top">:</td><td><div>soft</div></td></tr><tr><td style="font-weight:bold;vertical-align:top">web2py_original_uri</td><td valign="top">:</td><td><div>/upload_video</div></td></tr><tr><td style="font-weight:bold;vertical-align:top">web2py_path</td><td valign="top">:</td><td><div>/home/leo/projects/heroku_projects/annotatit</div></td></tr><tr><td style="font-weight:bold;vertical-align:top">web2py_version</td><td valign="top">:</td><td><div>2.4.6-stable+timestamp.2013.04.06.17.37.38</div></td></tr><tr><td style="font-weight:bold;vertical-align:top">wsgi_errors</td><td valign="top">:</td><td><div>&lt;open file &#x27;&lt;stderr&gt;&#x27;, mode &#x27;w&#x27; at 0x7f42a9f01270&gt;</div></td></tr><tr><td style="font-weight:bold;vertical-align:top">wsgi_file_wrapper</td><td valign="top">:</td><td><div>&lt;class gunicorn.http.wsgi.FileWrapper at 0x1c8ebb0&gt;</div></td></tr><tr><td style="font-weight:bold;vertical-align:top">wsgi_input</td><td valign="top">:</td><td><div>&lt;gunicorn.http.body.Body object at 0x1fb9790&gt;</div></td></tr><tr><td style="font-weight:bold;vertical-align:top">wsgi_multiprocess</td><td valign="top">:</td><td><div>False</div></td></tr><tr><td style="font-weight:bold;vertical-align:top">wsgi_multithread</td><td valign="top">:</td><td><div>False</div></td></tr><tr><td style="font-weight:bold;vertical-align:top">wsgi_run_once</td><td valign="top">:</td><td><div>False</div></td></tr><tr><td style="font-weight:bold;vertical-align:top">wsgi_url_scheme</td><td valign="top">:</td><td><div>http</div></td></tr><tr><td style="font-weight:bold;vertical-align:top">wsgi_version</td><td valign="top">:</td><td><div><table><tr><td><div>1</div></td></tr><tr><td><div>0</div></td></tr></table></div></td></tr></table></div></td></tr><tr><td style="font-weight:bold;vertical-align:top">extension</td><td valign="top">:</td><td><div>html</div></td></tr><tr><td style="font-weight:bold;vertical-align:top">folder</td><td valign="top">:</td><td><div>/home/leo/projects/heroku_projects/annotatit/applications/AnnotatIt/</div></td></tr><tr><td style="font-weight:bold;vertical-align:top">function</td><td valign="top">:</td><td><div>upload_video</div></td></tr><tr><td style="font-weight:bold;vertical-align:top">get_vars</td><td valign="top">:</td><td><div><table></table></div></td></tr><tr><td style="font-weight:bold;vertical-align:top">global_settings</td><td valign="top">:</td><td><div><table><tr><td style="font-weight:bold;vertical-align:top">app_folders</td><td valign="top">:</td><td><div>set([&#x27;/home/leo/projects/heroku_projects/annotatit/applications/admin/&#x27;, &#x27;/home/leo/projects/heroku_projects/annotatit/applications/AnnotatIt/&#x27;])</div></td></tr><tr><td style="font-weight:bold;vertical-align:top">applications_parent</td><td valign="top">:</td><td><div>/home/leo/projects/heroku_projects/annotatit</div></td></tr><tr><td style="font-weight:bold;vertical-align:top">db_sessions</td><td valign="top">:</td><td><div>set([])</div></td></tr><tr><td style="font-weight:bold;vertical-align:top">debugging</td><td valign="top">:</td><td><div>False</div></td></tr><tr><td style="font-weight:bold;vertical-align:top">gluon_parent</td><td valign="top">:</td><td><div>/home/leo/projects/heroku_projects/annotatit</div></td></tr><tr><td style="font-weight:bold;vertical-align:top">is_jython</td><td valign="top">:</td><td><div>False</div></td></tr><tr><td style="font-weight:bold;vertical-align:top">is_pypy</td><td valign="top">:</td><td><div>False</div></td></tr><tr><td style="font-weight:bold;vertical-align:top">local_hosts</td><td valign="top">:</td><td><div><table><tr><td><div>cotita</div></td></tr><tr><td><div>::1</div></td></tr><tr><td><div>127.0.1.1</div></td></tr><tr><td><div>::ffff:127.0.0.1</div></td></tr><tr><td><div>127.0.0.1</div></td></tr></table></div></td></tr><tr><td style="font-weight:bold;vertical-align:top">web2py_crontype</td><td valign="top">:</td><td><div>soft</div></td></tr><tr><td style="font-weight:bold;vertical-align:top">web2py_version</td><td valign="top">:</td><td><div>2.4.6-stable+timestamp.2013.04.06.17.37.38</div></td></tr></table></div></td></tr><tr><td style="font-weight:bold;vertical-align:top">is_https</td><td valign="top">:</td><td><div>False</div></td></tr><tr><td style="font-weight:bold;vertical-align:top">is_local</td><td valign="top">:</td><td><div>True</div></td></tr><tr><td style="font-weight:bold;vertical-align:top">is_restful</td><td valign="top">:</td><td><div>False</div></td></tr><tr><td style="font-weight:bold;vertical-align:top">now</td><td valign="top">:</td><td><div>datetime.datetime(2013, 5, 16, 11, 35, 1, 263774)</div></td></tr><tr><td style="font-weight:bold;vertical-align:top">post_vars</td><td valign="top">:</td><td><div><table></table></div></td></tr><tr><td style="font-weight:bold;vertical-align:top">url</td><td valign="top">:</td><td><div>/upload_video</div></td></tr><tr><td style="font-weight:bold;vertical-align:top">utcnow</td><td valign="top">:</td><td><div>datetime.datetime(2013, 5, 16, 9, 35, 1, 263792)</div></td></tr><tr><td style="font-weight:bold;vertical-align:top">uuid</td><td valign="top">:</td><td><div>AnnotatIt/127.0.0.1.2013-05-16.11-35-01.a223e3e5-7aa0-4e95-bfd3-8d12a712b2ae</div></td></tr><tr><td style="font-weight:bold;vertical-align:top">vars</td><td valign="top">:</td><td><div><table></table></div></td></tr><tr><td style="font-weight:bold;vertical-align:top">wsgi</td><td valign="top">:</td><td><div><table><tr><td style="font-weight:bold;vertical-align:top">environ</td><td valign="top">:</td><td><div><table><tr><td style="font-weight:bold;vertical-align:top">HTTP_ACCEPT</td><td valign="top">:</td><td><div>text/html,application/xhtml+xml,application/xml;q=0.9,*/*;q=0.8</div></td></tr><tr><td style="font-weight:bold;vertical-align:top">HTTP_ACCEPT_CHARSET</td><td valign="top">:</td><td><div>ISO-8859-1,utf-8;q=0.7,*;q=0.3</div></td></tr><tr><td style="font-weight:bold;vertical-align:top">HTTP_ACCEPT_ENCODING</td><td valign="top">:</td><td><div>gzip,deflate,sdch</div></td></tr><tr><td style="font-weight:bold;vertical-align:top">HTTP_ACCEPT_LANGUAGE</td><td valign="top">:</td><td><div>en-US,en;q=0.8,fr;q=0.6,es;q=0.4</div></td></tr><tr><td style="font-weight:bold;vertical-align:top">HTTP_CONNECTION</td><td valign="top">:</td><td><div>keep-alive</div></td></tr><tr><td style="font-weight:bold;vertical-align:top">HTTP_COOKIE</td><td valign="top">:</td><td><div>session_id_shybreaker=127.0.0.1-88bacb70-274e-4d14-8468-5f836e1a38df; session_id_admin=127.0.0.1-8065b2d9-5e99-4b2d-9c69-79320a80c1d3; session_id_annotatit=127.0.0.1-e4294da3-7cb4-4bef-afc1-172f62a65b4f</div></td></tr><tr><td style="font-weight:bold;vertical-align:top">HTTP_HOST</td><td valign="top">:</td><td><div>127.0.0.1:5000</div></td></tr><tr><td style="font-weight:bold;vertical-align:top">HTTP_USER_AGENT</td><td valign="top">:</td><td><div>Mozilla/5.0 (X11; Linux x86_64) AppleWebKit/537.31 (KHTML, like Gecko) Chrome/26.0.1410.63 Safari/537.31</div></td></tr><tr><td style="font-weight:bold;vertical-align:top">PATH_INFO</td><td valign="top">:</td><td><div>/upload_video</div></td></tr><tr><td style="font-weight:bold;vertical-align:top">QUERY_STRING</td><td valign="top">:</td><td><div></div></td></tr><tr><td style="font-weight:bold;vertical-align:top">RAW_URI</td><td valign="top">:</td><td><div>/upload_video</div></td></tr><tr><td style="font-weight:bold;vertical-align:top">REMOTE_ADDR</td><td valign="top">:</td><td><div>127.0.0.1</div></td></tr><tr><td style="font-weight:bold;vertical-align:top">REMOTE_PORT</td><td valign="top">:</td><td><div>33202</div></td></tr><tr><td style="font-weight:bold;vertical-align:top">REQUEST_METHOD</td><td valign="top">:</td><td><div>GET</div></td></tr><tr><td style="font-weight:bold;vertical-align:top">REQUEST_URI</td><td valign="top">:</td><td><div>/AnnotatIt/default/upload_video</div></td></tr><tr><td style="font-weight:bold;vertical-align:top">SCRIPT_NAME</td><td valign="top">:</td><td><div></div></td></tr><tr><td style="font-weight:bold;vertical-align:top">SERVER_NAME</td><td valign="top">:</td><td><div>127.0.0.1</div></td></tr><tr><td style="font-weight:bold;vertical-align:top">SERVER_PORT</td><td valign="top">:</td><td><div>5000</div></td></tr><tr><td style="font-weight:bold;vertical-align:top">SERVER_PROTOCOL</td><td valign="top">:</td><td><div>HTTP/1.1</div></td></tr><tr><td style="font-weight:bold;vertical-align:top">SERVER_SOFTWARE</td><td valign="top">:</td><td><div>gunicorn/0.17.2</div></td></tr><tr><td style="font-weight:bold;vertical-align:top">WEB2PY_ORIGINAL_URI</td><td valign="top">:</td><td><div>/upload_video</div></td></tr><tr><td style="font-weight:bold;vertical-align:top">gunicorn.socket</td><td valign="top">:</td><td><div>&lt;socket._socketobject object at 0x22e6670&gt;</div></td></tr><tr><td style="font-weight:bold;vertical-align:top">wsgi.errors</td><td valign="top">:</td><td><div>&lt;open file &#x27;&lt;stderr&gt;&#x27;, mode &#x27;w&#x27; at 0x7f42a9f01270&gt;</div></td></tr><tr><td style="font-weight:bold;vertical-align:top">wsgi.file_wrapper</td><td valign="top">:</td><td><div>&lt;class gunicorn.http.wsgi.FileWrapper at 0x1c8ebb0&gt;</div></td></tr><tr><td style="font-weight:bold;vertical-align:top">wsgi.input</td><td valign="top">:</td><td><div>&lt;cStringIO.StringO object at 0x23f13e8&gt;</div></td></tr><tr><td style="font-weight:bold;vertical-align:top">wsgi.multiprocess</td><td valign="top">:</td><td><div>False</div></td></tr><tr><td style="font-weight:bold;vertical-align:top">wsgi.multithread</td><td valign="top">:</td><td><div>False</div></td></tr><tr><td style="font-weight:bold;vertical-align:top">wsgi.run_once</td><td valign="top">:</td><td><div>False</div></td></tr><tr><td style="font-weight:bold;vertical-align:top">wsgi.url_scheme</td><td valign="top">:</td><td><div>http</div></td></tr><tr><td style="font-weight:bold;vertical-align:top">wsgi.version</td><td valign="top">:</td><td><div>1</div></td></tr></table></div></td></tr></table></div></td></tr></table></div>'
tRp70
sS'frames'
p71
(lp72
(dp73
S'file'
p74
S'/home/leo/projects/heroku_projects/annotatit/gluon/restricted.py'
p75
sS'dump'
p76
(dp77
S'code'
p78
S"'# -*- coding: utf-8 -*-\\n# this file is released ...)\\n\\nresponse._vars=response._caller(upload_video)\\n'"
p79
sS'layer'
p80
S"'/home/leo/projects/heroku_projects/annotatit/applications/AnnotatIt/controllers/default.py'"
p81
sS'global compile2'
p82
S'<function compile2>'
p83
sS'ccode'
p84
S'undefined'
p85
ssS'lnum'
p86
I211
sS'lines'
p87
(dp88
I206
S"    environment['__name__'] = '__restricted__'"
p89
sI207
S'    try:'
p90
sI208
S'        if isinstance(code, types.CodeType):'
p91
sI209
S'            ccode = code'
p92
sI210
S'        else:'
p93
sI211
S'            ccode = compile2(code, layer)'
p94
sI212
S'        exec ccode in environment'
p95
sI213
S'    except HTTP:'
p96
sI214
S'        raise'
p97
sI215
S'    except RestrictedError:'
p98
ssS'call'
p99
S"(code='# -*- coding: utf-8 -*-\\n# this file is released ...)\\n\\nresponse._vars=response._caller(upload_video)\\n', environment={'A': <class 'gluon.html.A'>, 'ANY_OF': <class 'gluon.validators.ANY_OF'>, 'APP_DOMAIN_NAME': 'AnnotatIt.com', 'APP_NAME': 'AnnotatIt', 'Auth': <class 'gluon.tools.Auth'>, 'B': <class 'gluon.html.B'>, 'BEAUTIFY': <class 'gluon.html.BEAUTIFY'>, 'BODY': <class 'gluon.html.BODY'>, 'BR': <class 'gluon.html.BR'>, 'BUTTON': <class 'gluon.html.BUTTON'>, ...}, layer='/home/leo/projects/heroku_projects/annotatit/applications/AnnotatIt/controllers/default.py')"
p100
sS'func'
p101
S'restricted'
p102
sa(dp103
g74
S'/home/leo/projects/heroku_projects/annotatit/gluon/restricted.py'
p104
sg76
(dp105
S'builtincompile'
p106
S'<built-in function compile>'
p107
sS'code'
p108
S"'# -*- coding: utf-8 -*-\\n# this file is released ...)\\n\\nresponse._vars=response._caller(upload_video)\\n'"
p109
sS'code.rstrip'
p110
S'<built-in method rstrip of str object>'
p111
sS').replace'
p112
g85
sS'layer'
p113
S"'/home/leo/projects/heroku_projects/annotatit/applications/AnnotatIt/controllers/default.py'"
p114
ssg86
I194
sg87
(dp115
I192
S"    The +'\\n' is necessary else compile fails when code ends in a comment."
p116
sI193
S'    """'
p117
sI194
S"    return compile(code.rstrip().replace('\\r\\n', '\\n') + '\\n', layer, 'exec')"
p118
sI195
S''
sI196
S''
sI197
S"def restricted(code, environment=None, layer='Unknown'):"
p119
sI198
S'    """'
p120
sI189
S''
sI190
S'def compile2(code, layer):'
p121
sI191
S'    """'
p122
ssg99
S"(code='# -*- coding: utf-8 -*-\\n# this file is released ...)\\n\\nresponse._vars=response._caller(upload_video)\\n', layer='/home/leo/projects/heroku_projects/annotatit/applications/AnnotatIt/controllers/default.py')"
p123
sg101
S'compile2'
p124
sasS'pyver'
p125
S'Python 2.7.3: /home/leo/projects/heroku_projects/annotatit/venv/bin/python (prefix: /home/leo/projects/heroku_projects/annotatit/venv)'
p126
sS'session'
p127
g69
(S's\xe5\x08\x00\x00<div><table><tr><td style="font-weight:bold;vertical-align:top">auth</td><td valign="top">:</td><td><div><table><tr><td style="font-weight:bold;vertical-align:top">expiration</td><td valign="top">:</td><td><div>2592000</div></td></tr><tr><td style="font-weight:bold;vertical-align:top">hmac_key</td><td valign="top">:</td><td><div>7a6ef0c6-f505-44de-b8c2-5d46338e65e5</div></td></tr><tr><td style="font-weight:bold;vertical-align:top">last_visit</td><td valign="top">:</td><td><div>datetime.datetime(2013, 4, 24, 13, 50, 40, 234273)</div></td></tr><tr><td style="font-weight:bold;vertical-align:top">remember</td><td valign="top">:</td><td><div>True</div></td></tr><tr><td style="font-weight:bold;vertical-align:top">user</td><td valign="top">:</td><td><div><table><tr><td style="font-weight:bold;vertical-align:top">email</td><td valign="top">:</td><td><div>leo.m.rocha@gmail.com</div></td></tr><tr><td style="font-weight:bold;vertical-align:top">first_name</td><td valign="top">:</td><td><div>leo</div></td></tr><tr><td style="font-weight:bold;vertical-align:top">id</td><td valign="top">:</td><td><div>1</div></td></tr><tr><td style="font-weight:bold;vertical-align:top">last_name</td><td valign="top">:</td><td><div>rocha</div></td></tr><tr><td style="font-weight:bold;vertical-align:top">registration_id</td><td valign="top">:</td><td><div></div></td></tr><tr><td style="font-weight:bold;vertical-align:top">registration_key</td><td valign="top">:</td><td><div></div></td></tr><tr><td style="font-weight:bold;vertical-align:top">reset_password_key</td><td valign="top">:</td><td><div></div></td></tr></table></div></td></tr><tr><td style="font-weight:bold;vertical-align:top">user_groups</td><td valign="top">:</td><td><div><table><tr><td style="font-weight:bold;vertical-align:top">1</td><td valign="top">:</td><td><div>user_1</div></td></tr></table></div></td></tr></table></div></td></tr><tr><td style="font-weight:bold;vertical-align:top">flash</td><td valign="top">:</td><td><div>None</div></td></tr><tr><td style="font-weight:bold;vertical-align:top">last_orderby</td><td valign="top">:</td><td><div>None</div></td></tr><tr><td style="font-weight:bold;vertical-align:top">last_query</td><td valign="top">:</td><td><div>db.advice.id&gt;0</div></td></tr></table></div>'
tRp128
sS'etype'
p129
S"<type 'exceptions.SyntaxError'>"
p130
sS'date'
p131
S'Thu May 16 11:35:01 2013'
p132
sS'response'
p133
g69
(S's\\\x19\x00\x00<div><table><tr><td style="font-weight:bold;vertical-align:top">body</td><td valign="top">:</td><td><div>&lt;cStringIO.StringO object at 0x27f81b8&gt;</div></td></tr><tr><td style="font-weight:bold;vertical-align:top">cookies</td><td valign="top">:</td><td><div><table><tr><td style="font-weight:bold;vertical-align:top">session_id_annotatit</td><td valign="top">:</td><td><div>127.0.0.1-e4294da3-7cb4-4bef-afc1-172f62a65b4f<table><tr><td style="font-weight:bold;vertical-align:top">comment</td><td valign="top">:</td><td><div></div></td></tr><tr><td style="font-weight:bold;vertical-align:top">domain</td><td valign="top">:</td><td><div></div></td></tr><tr><td style="font-weight:bold;vertical-align:top">expires</td><td valign="top">:</td><td><div>2592000</div></td></tr><tr><td style="font-weight:bold;vertical-align:top">httponly</td><td valign="top">:</td><td><div></div></td></tr><tr><td style="font-weight:bold;vertical-align:top">max-age</td><td valign="top">:</td><td><div></div></td></tr><tr><td style="font-weight:bold;vertical-align:top">path</td><td valign="top">:</td><td><div>/</div></td></tr><tr><td style="font-weight:bold;vertical-align:top">secure</td><td valign="top">:</td><td><div></div></td></tr><tr><td style="font-weight:bold;vertical-align:top">version</td><td valign="top">:</td><td><div></div></td></tr></table></div></td></tr></table></div></td></tr><tr><td style="font-weight:bold;vertical-align:top">delimiters</td><td valign="top">:</td><td><div><table><tr><td><div>{{</div></td></tr><tr><td><div>}}</div></td></tr></table></div></td></tr><tr><td style="font-weight:bold;vertical-align:top">files</td><td valign="top">:</td><td><div><table></table></div></td></tr><tr><td style="font-weight:bold;vertical-align:top">flash</td><td valign="top">:</td><td><div></div></td></tr><tr><td style="font-weight:bold;vertical-align:top">generic_patterns</td><td valign="top">:</td><td><div><table><tr><td><div>*</div></td></tr></table></div></td></tr><tr><td style="font-weight:bold;vertical-align:top">google_analytics_id</td><td valign="top">:</td><td><div>None</div></td></tr><tr><td style="font-weight:bold;vertical-align:top">headers</td><td valign="top">:</td><td><div><table><tr><td style="font-weight:bold;vertical-align:top">X-Powered-By</td><td valign="top">:</td><td><div>web2py</div></td></tr></table></div></td></tr><tr><td style="font-weight:bold;vertical-align:top">logo</td><td valign="top">:</td><td><div><a class="brand" href="http://www.annotatit.com/"><b>AnnotatIt</b>&trade;&nbsp;</a></div></td></tr><tr><td style="font-weight:bold;vertical-align:top">menu</td><td valign="top">:</td><td><div><table><tr><td><div><table><tr><td><div>Videos</div></td></tr><tr><td><div>False</div></td></tr><tr><td><div>/videos</div></td></tr><tr><td><div><table><tr><td><div><table><tr><td><div>My videos</div></td></tr><tr><td><div>False</div></td></tr><tr><td><div>/my_videos</div></td></tr></table></div></td></tr><tr><td><div><table><tr><td><div>Upload Video</div></td></tr><tr><td><div>False</div></td></tr><tr><td><div>/upload_video</div></td></tr></table></div></td></tr></table></div></td></tr></table></div></td></tr></table></div></td></tr><tr><td style="font-weight:bold;vertical-align:top">meta</td><td valign="top">:</td><td><div><table><tr><td style="font-weight:bold;vertical-align:top">author</td><td valign="top">:</td><td><div>Leonardo M. Rocha &lt;you@example.com&gt;</div></td></tr><tr><td style="font-weight:bold;vertical-align:top">description</td><td valign="top">:</td><td><div>Synchronized Video Annotation for Education</div></td></tr><tr><td style="font-weight:bold;vertical-align:top">generator</td><td valign="top">:</td><td><div>Leonardo M. Rocha</div></td></tr><tr><td style="font-weight:bold;vertical-align:top">keywords</td><td valign="top">:</td><td><div>personal development, leadership, spokesman, video, audio, annotation, social annotation, video annotation, music annotation, music education, online music education, online music video tagging</div></td></tr></table></div></td></tr><tr><td style="font-weight:bold;vertical-align:top">models_to_run</td><td valign="top">:</td><td><div><table><tr><td><div>^\\w+\\.py$</div></td></tr><tr><td><div>^default/\\w+\\.py$</div></td></tr><tr><td><div>^default/upload_video/\\w+\\.py$</div></td></tr></table></div></td></tr><tr><td style="font-weight:bold;vertical-align:top">postprocessing</td><td valign="top">:</td><td><div><table></table></div></td></tr><tr><td style="font-weight:bold;vertical-align:top">session_cookie_expires</td><td valign="top">:</td><td><div>None</div></td></tr><tr><td style="font-weight:bold;vertical-align:top">session_data_name</td><td valign="top">:</td><td><div>session_data_annotatit</div></td></tr><tr><td style="font-weight:bold;vertical-align:top">session_file</td><td valign="top">:</td><td><div>&lt;open file &#x27;/home/leo/projects/heroku_projects/annotatit/applications/AnnotatIt/sessions/127.0.0.1-e4294da3-7cb4-4bef-afc1-172f62a65b4f&#x27;, mode &#x27;rb+&#x27; at 0x218e6f0&gt;</div></td></tr><tr><td style="font-weight:bold;vertical-align:top">session_filename</td><td valign="top">:</td><td><div>/home/leo/projects/heroku_projects/annotatit/applications/AnnotatIt/sessions/127.0.0.1-e4294da3-7cb4-4bef-afc1-172f62a65b4f</div></td></tr><tr><td style="font-weight:bold;vertical-align:top">session_id</td><td valign="top">:</td><td><div>127.0.0.1-e4294da3-7cb4-4bef-afc1-172f62a65b4f</div></td></tr><tr><td style="font-weight:bold;vertical-align:top">session_id_name</td><td valign="top">:</td><td><div>session_id_annotatit</div></td></tr><tr><td style="font-weight:bold;vertical-align:top">session_locked</td><td valign="top">:</td><td><div>True</div></td></tr><tr><td style="font-weight:bold;vertical-align:top">session_new</td><td valign="top">:</td><td><div>False</div></td></tr><tr><td style="font-weight:bold;vertical-align:top">session_storage_type</td><td valign="top">:</td><td><div>file</div></td></tr><tr><td style="font-weight:bold;vertical-align:top">status</td><td valign="top">:</td><td><div>200</div></td></tr><tr><td style="font-weight:bold;vertical-align:top">subtitle</td><td valign="top">:</td><td><div>Synchronized Video Annotation for Education</div></td></tr><tr><td style="font-weight:bold;vertical-align:top">title</td><td valign="top">:</td><td><div>Annotatit</div></td></tr><tr><td style="font-weight:bold;vertical-align:top">view</td><td valign="top">:</td><td><div>default/upload_video.html</div></td></tr></table></div>'
tRp134
sS'locals'
p135
(dp136
g4
S"'/home/leo/projects/heroku_projects/annotatit/applications/AnnotatIt/controllers/default.py'"
p137
sg6
S"'# -*- coding: utf-8 -*-\\n# this file is released ...)\\n\\nresponse._vars=response._caller(upload_video)\\n'"
p138
sssS'traceback'
p139
S'Traceback (most recent call last):\n  File "/home/leo/projects/heroku_projects/annotatit/gluon/restricted.py", line 211, in restricted\n    ccode = compile2(code, layer)\n  File "/home/leo/projects/heroku_projects/annotatit/gluon/restricted.py", line 194, in compile2\n    return compile(code.rstrip().replace(\'\\r\\n\', \'\\n\') + \'\\n\', layer, \'exec\')\n  File "/home/leo/projects/heroku_projects/annotatit/applications/AnnotatIt/controllers/default.py", line 113\n    else:\n       ^\nSyntaxError: invalid syntax\n'
p140
s.