(dp1
S'output'
p2
S"<type 'exceptions.NameError'> global name 'os' is not defined"
p3
sS'layer'
p4
S'/home/leo/projects/heroku_projects/annotatit/applications/AnnotatIt/controllers/default.py'
p5
sS'code'
p6
S'# -*- coding: utf-8 -*-\n# this file is released under public domain and you can use without limitations\n\n#########################################################################\n## This is a samples controller\n## - index is the default action of any application\n## - user is required for authentication and authorization\n## - download is for downloading files uploaded in the db (does streaming)\n## - call exposes all registered services (none by default)\n#########################################################################\n#import os, sys\n\ndef index():\n    """\n    example action using the internationalization operator T and flash\n    rendered by views/default/index.html or views/generic.html\n\n    if you need a simple wiki simple replace the two lines below with:\n    return auth.wiki()\n    """\n    return dict()\n\n\n#########################################################################\n#Login Not needed\n#########################################################################\n@auth.requires_login()\ndef videos_by():\n    """\n    Shows the list of My uploaded videos,\n    And options to update, modify and erase them\n    """\n    \n    #if(not auth.user):\n    #    redirect(URL(\'index\'))\n    \n    user_id = request.args(0, cast=int)#youtube user id\n    _videos = db(db.youtube_videos.person_id == user_id).select()\n    #TODO should check also for permissions of the user cheking the video\n    \n    return dict(\n                videos = _videos,\n                )\n\n\n\n\n\n#########################################################################\n#Login Required\n#########################################################################\n\n@auth.requires_login()\ndef videos():\n    """\n    Shows me a list of all the videos I have the right to see\n    """\n    #if(not auth.user):\n    #    redirect(URL(\'index\'))\n    _videos = db(db.youtube_videos.person_id == auth.user_id).select()\n    \n    return dict(\n                videos = _videos,\n                )\n\n@auth.requires_login()\ndef my_videos():\n    """\n    Shows the list of My uploaded videos,\n    And options to update, modify and erase them\n    """\n    #if(not auth.user):\n    #    redirect(URL(\'index\'))\n    _videos = db(db.youtube_videos.person_id == auth.user_id).select()\n    \n    return dict(\n                videos = _videos,\n                )\n\n\n\n@auth.requires_login()\ndef upload_video():\n    """\n    Form to upload a new video (in fact, for the moment is only add a video from youtube)\n    """\n    uform  = SQLFORM(db.youtube_videos, showid = False, fields=[\'title\', \'subtitle\', \'youtube_video_id\', \'script\' ], #TODO take out person_id from the selectable fields and put it automatically to the current user\n                    formname=\'upload_video_form\', submit_button = \'Upload\')\n                    #formstyle=\'div\', formname=\'upload_video_form\', submit_button = \'Upload\') #formstyle not working!!\n    if uform.process(formname=\'upload_video_form\').accepted:\n        #response.flash = \'form accepted\'\n        #TODO redirect to the video page with the right video ID\n        #next_page = URL(\'view_video\',args=uform.youtube_video_id)\n        #redirect(next_page)\n        pass\n    elif uform.errors:\n        response.flash = \'form has errors, please check\'\n    else:\n        #response.flash = \'please fill out the form\'\n        pass\n    return dict(\n                upload_form = uform,\n                )\n\n\n#############################\n#AJAX calls\n#############################\n\ndef get_tags():\n    """\n    ajax call for the view_video view for commenting on a video \n    with the fast annotation system\n    """\n    if (request.vars.video_id):\n        rows = db(db.tag.video_id == request.vars.video_id).select();\n        return response.json(rows)\n    else:\n        return None\n\n\ndef get_comments():\n    """\n    ajax call for the view_video view for commenting on a video \n    with the fast annotation system\n    """\n    if (request.vars.video_id):\n        rows = db(db.annotations.video_id == request.vars.video_id).select();\n        return response.json(rows)\n    else:\n        return None\n\n\n@auth.requires_login() \ndef post_annotation():\n    """\n    ajax call for the view_video view for commenting on a video\n    """\n    form = SQLFORM(db.annotations,showid = False,\n                    fields=[\'video_id\',\'video_time\', \'comment\'],)\n    form.vars.annotator_id = auth.user_id\n    if form.accepts(request, formname=None):\n        response.flash = T(\'Your comment has been successfully posted\')\n        #return DIV(T("Comment posted"))\n        #return DIV(BEAUTIFY(form.vars))\n        return None\n    elif form.errors:\n        return TABLE(*[TR(k, v) for k, v in form.errors.items()])\n\n\n@auth.requires_login() \ndef post_advice():\n    """\n    ajax call for the view_video view for commenting on a video\n    """\n    form = SQLFORM(db.advice,showid = False,\n                    fields=[ \'advice_text\'],)\n    form.vars.annotator_id = auth.user_id\n    os.system("echo advice vars: \'"+form.vars+"\'")\n    form.vars.video_id = form.vars.annotation_video_id\n    if form.accepts(request, formname=None):\n        response.flash = T(\'Your advice has been successfully posted\')\n        #return DIV(T("Comment posted"))\n        return DIV(BEAUTIFY(form.vars))\n    elif form.errors:\n        return TABLE(*[TR(k, v) for k, v in form.errors.items()])\n\n@auth.requires_login()\ndef post_tag():\n    """\n    ajax call for the view_video view for commenting on a video \n    with the fast annotation system\n    """\n    form = SQLFORM(db.tag,showid = False,\n                    fields=[\'tag_type_name\', \'video_id\',\'evaluation\',\'video_time\'],)\n    form.vars.annotator_id = auth.user_id\n    if form.accepts(request, formname=None):\n        response.flash = T(\'Tagged\')\n        #return DIV(T("Comment posted"))\n        return DIV(BEAUTIFY(form.vars))\n        #return None\n    elif form.errors:\n        return TABLE(*[TR(k, v) for k, v in form.errors.items()])\n\n#############################\n#############################\n\n#@auth.requires_login() #TODO make user authentication control here!!!\ndef view_video():\n    """\n    Shows the list of uploaded videos\n    """\n    #if(not auth.user):\n    #    redirect(URL(\'index\'))\n    _video_id = request.args(0, cast=str)#youtube videoID\n    \n    _video = db.youtube_videos(db.youtube_videos.youtube_video_id == _video_id)\n    #os.system("echo \'video.id =  "+str(_video.id)+"\'")\n    #_annotations = db(db.annotations.video_id == _video.id).select(orderby=db.annotations.video_time)\n    _advices = db(db.advice.video_id == _video.id).select()\n    #os.system("echo \'annotations =  "+str(_annotations)+"\'")\n    #check for permissions of individual and group to actually see the video, else show not allowed \n    """\n    aform = SQLFORM(db.annotations, showid = False,\n                    fields=[\'video_time\', \'comment\'],\n                    formname=\'comment_form\', submit_button = \'Comment\')\n                    #formstyle=\'div\', formname=\'comment_form\', submit_button = \'Upload\')\n    aform.vars.video_id = _video_id\n    if aform.process(formname=\'comment_form\').accepted:\n        pass\n        #response.flash = \'form accepted\'\n        #TODO AJAX add the comment to DB\n        #TODO AJAX add the comment to the current page\n    elif aform.errors:\n        response.flash = \'form has errors, please check\'\n    else:\n        #response.flash = \'please fill out the form\'\n        pass\n    """\n    return dict(\n                video = _video,\n                #annotations = _annotations,\n                advices = _advices,\n                #annotation_form = aform\n                )\n\n\n\n\n\n\n#########################################################################\n#########################################################################\ndef user():\n    """\n    exposes:\n    http://..../[app]/default/user/login\n    http://..../[app]/default/user/logout\n    http://..../[app]/default/user/register\n    http://..../[app]/default/user/profile\n    http://..../[app]/default/user/retrieve_password\n    http://..../[app]/default/user/change_password\n    use @auth.requires_login()\n        @auth.requires_membership(\'group name\')\n        @auth.requires_permission(\'read\',\'table name\',record_id)\n    to decorate functions that need access control\n    """\n    return dict(form=auth())\n\n\ndef download():\n    """\n    allows downloading of uploaded files\n    http://..../[app]/default/download/[filename]\n    """\n    return response.download(request, db)\n\n\ndef call():\n    """\n    exposes services. for example:\n    http://..../[app]/default/call/jsonrpc\n    decorate with @services.jsonrpc the functions to expose\n    supports xml, json, xmlrpc, jsonrpc, amfrpc, rss, csv\n    """\n    return service()\n\n\n@auth.requires_signature()\ndef data():\n    """\n    http://..../[app]/default/data/tables\n    http://..../[app]/default/data/create/[table]\n    http://..../[app]/default/data/read/[table]/[id]\n    http://..../[app]/default/data/update/[table]/[id]\n    http://..../[app]/default/data/delete/[table]/[id]\n    http://..../[app]/default/data/select/[table]\n    http://..../[app]/default/data/search/[table]\n    but URLs must be signed, i.e. linked with\n      A(\'table\',_href=URL(\'data/tables\',user_signature=True))\n    or with the signed load operator\n      LOAD(\'default\',\'data.load\',args=\'tables\',ajax=True,user_signature=True)\n    """\n    return dict(form=crud())\n\nresponse._vars=response._caller(post_advice)\n'
p7
sS'snapshot'
p8
(dp9
S'exception'
p10
(dp11
S'__hash__'
p12
S"<method-wrapper '__hash__' of exceptions.NameError object>"
p13
sS'__setattr__'
p14
S"<method-wrapper '__setattr__' of exceptions.NameError object>"
p15
sS'__reduce_ex__'
p16
S'<built-in method __reduce_ex__ of exceptions.NameError object>'
p17
sS'__getslice__'
p18
S"<method-wrapper '__getslice__' of exceptions.NameError object>"
p19
sS'__getitem__'
p20
S"<method-wrapper '__getitem__' of exceptions.NameError object>"
p21
sS'__setstate__'
p22
S'<built-in method __setstate__ of exceptions.NameError object>'
p23
sS'args'
p24
S'("global name \'os\' is not defined",)'
p25
sS'__reduce__'
p26
S'<built-in method __reduce__ of exceptions.NameError object>'
p27
sS'__str__'
p28
S"<method-wrapper '__str__' of exceptions.NameError object>"
p29
sS'__format__'
p30
S'<built-in method __format__ of exceptions.NameError object>'
p31
sS'__getattribute__'
p32
S"<method-wrapper '__getattribute__' of exceptions.NameError object>"
p33
sS'__class__'
p34
S"<type 'exceptions.NameError'>"
p35
sS'__unicode__'
p36
S'<built-in method __unicode__ of exceptions.NameError object>'
p37
sS'__delattr__'
p38
S"<method-wrapper '__delattr__' of exceptions.NameError object>"
p39
sS'__subclasshook__'
p40
S'<built-in method __subclasshook__ of type object>'
p41
sS'__repr__'
p42
S"<method-wrapper '__repr__' of exceptions.NameError object>"
p43
sS'__dict__'
p44
S'{}'
p45
sS'__sizeof__'
p46
S'<built-in method __sizeof__ of exceptions.NameError object>'
p47
sS'__doc__'
p48
S"'Name not found globally.'"
p49
sS'__init__'
p50
S"<method-wrapper '__init__' of exceptions.NameError object>"
p51
sS'__new__'
p52
S'<built-in method __new__ of type object>'
p53
ssS'evalue'
p54
S"global name 'os' is not defined"
p55
sS'request'
p56
cgluon.html
XML_unpickle
p57
(S's.T\x00\x00<div><table><tr><td style="font-weight:bold;vertical-align:top">ajax</td><td valign="top">:</td><td><div>True</div></td></tr><tr><td style="font-weight:bold;vertical-align:top">application</td><td valign="top">:</td><td><div>AnnotatIt</div></td></tr><tr><td style="font-weight:bold;vertical-align:top">args</td><td valign="top">:</td><td><div><table><tr><td><div>6YcJljPGz4M</div></td></tr></table></div></td></tr><tr><td style="font-weight:bold;vertical-align:top">body</td><td valign="top">:</td><td><div>&lt;open file &#x27;&lt;fdopen&gt;&#x27;, mode &#x27;w+b&#x27; at 0x33e0c90&gt;</div></td></tr><tr><td style="font-weight:bold;vertical-align:top">cid</td><td valign="top">:</td><td><div>None</div></td></tr><tr><td style="font-weight:bold;vertical-align:top">client</td><td valign="top">:</td><td><div>127.0.0.1</div></td></tr><tr><td style="font-weight:bold;vertical-align:top">controller</td><td valign="top">:</td><td><div>default</div></td></tr><tr><td style="font-weight:bold;vertical-align:top">cookies</td><td valign="top">:</td><td><div><table><tr><td style="font-weight:bold;vertical-align:top">session_id_admin</td><td valign="top">:</td><td><div>127.0.0.1-8065b2d9-5e99-4b2d-9c69-79320a80c1d3<table><tr><td style="font-weight:bold;vertical-align:top">comment</td><td valign="top">:</td><td><div></div></td></tr><tr><td style="font-weight:bold;vertical-align:top">domain</td><td valign="top">:</td><td><div></div></td></tr><tr><td style="font-weight:bold;vertical-align:top">expires</td><td valign="top">:</td><td><div></div></td></tr><tr><td style="font-weight:bold;vertical-align:top">httponly</td><td valign="top">:</td><td><div></div></td></tr><tr><td style="font-weight:bold;vertical-align:top">max-age</td><td valign="top">:</td><td><div></div></td></tr><tr><td style="font-weight:bold;vertical-align:top">path</td><td valign="top">:</td><td><div></div></td></tr><tr><td style="font-weight:bold;vertical-align:top">secure</td><td valign="top">:</td><td><div></div></td></tr><tr><td style="font-weight:bold;vertical-align:top">version</td><td valign="top">:</td><td><div></div></td></tr></table></div></td></tr><tr><td style="font-weight:bold;vertical-align:top">session_id_annotatit</td><td valign="top">:</td><td><div>127.0.0.1-e4294da3-7cb4-4bef-afc1-172f62a65b4f<table><tr><td style="font-weight:bold;vertical-align:top">comment</td><td valign="top">:</td><td><div></div></td></tr><tr><td style="font-weight:bold;vertical-align:top">domain</td><td valign="top">:</td><td><div></div></td></tr><tr><td style="font-weight:bold;vertical-align:top">expires</td><td valign="top">:</td><td><div></div></td></tr><tr><td style="font-weight:bold;vertical-align:top">httponly</td><td valign="top">:</td><td><div></div></td></tr><tr><td style="font-weight:bold;vertical-align:top">max-age</td><td valign="top">:</td><td><div></div></td></tr><tr><td style="font-weight:bold;vertical-align:top">path</td><td valign="top">:</td><td><div></div></td></tr><tr><td style="font-weight:bold;vertical-align:top">secure</td><td valign="top">:</td><td><div></div></td></tr><tr><td style="font-weight:bold;vertical-align:top">version</td><td valign="top">:</td><td><div></div></td></tr></table></div></td></tr><tr><td style="font-weight:bold;vertical-align:top">session_id_shybreaker</td><td valign="top">:</td><td><div>127.0.0.1-88bacb70-274e-4d14-8468-5f836e1a38df<table><tr><td style="font-weight:bold;vertical-align:top">comment</td><td valign="top">:</td><td><div></div></td></tr><tr><td style="font-weight:bold;vertical-align:top">domain</td><td valign="top">:</td><td><div></div></td></tr><tr><td style="font-weight:bold;vertical-align:top">expires</td><td valign="top">:</td><td><div></div></td></tr><tr><td style="font-weight:bold;vertical-align:top">httponly</td><td valign="top">:</td><td><div></div></td></tr><tr><td style="font-weight:bold;vertical-align:top">max-age</td><td valign="top">:</td><td><div></div></td></tr><tr><td style="font-weight:bold;vertical-align:top">path</td><td valign="top">:</td><td><div></div></td></tr><tr><td style="font-weight:bold;vertical-align:top">secure</td><td valign="top">:</td><td><div></div></td></tr><tr><td style="font-weight:bold;vertical-align:top">version</td><td valign="top">:</td><td><div></div></td></tr></table></div></td></tr></table></div></td></tr><tr><td style="font-weight:bold;vertical-align:top">env</td><td valign="top">:</td><td><div><table><tr><td style="font-weight:bold;vertical-align:top">app_folders</td><td valign="top">:</td><td><div>set([&#x27;/home/leo/projects/heroku_projects/annotatit/applications/admin/&#x27;, &#x27;/home/leo/projects/heroku_projects/annotatit/applications/AnnotatIt/&#x27;])</div></td></tr><tr><td style="font-weight:bold;vertical-align:top">applications_parent</td><td valign="top">:</td><td><div>/home/leo/projects/heroku_projects/annotatit</div></td></tr><tr><td style="font-weight:bold;vertical-align:top">content_length</td><td valign="top">:</td><td><div>60</div></td></tr><tr><td style="font-weight:bold;vertical-align:top">content_type</td><td valign="top">:</td><td><div>application/x-www-form-urlencoded; charset=UTF-8</div></td></tr><tr><td style="font-weight:bold;vertical-align:top">db_sessions</td><td valign="top">:</td><td><div>set([])</div></td></tr><tr><td style="font-weight:bold;vertical-align:top">debugging</td><td valign="top">:</td><td><div>False</div></td></tr><tr><td style="font-weight:bold;vertical-align:top">gluon_parent</td><td valign="top">:</td><td><div>/home/leo/projects/heroku_projects/annotatit</div></td></tr><tr><td style="font-weight:bold;vertical-align:top">gunicorn_socket</td><td valign="top">:</td><td><div>&lt;socket._socketobject object at 0x359e590&gt;</div></td></tr><tr><td style="font-weight:bold;vertical-align:top">http_accept</td><td valign="top">:</td><td><div>*/*</div></td></tr><tr><td style="font-weight:bold;vertical-align:top">http_accept_charset</td><td valign="top">:</td><td><div>ISO-8859-1,utf-8;q=0.7,*;q=0.3</div></td></tr><tr><td style="font-weight:bold;vertical-align:top">http_accept_encoding</td><td valign="top">:</td><td><div>gzip,deflate,sdch</div></td></tr><tr><td style="font-weight:bold;vertical-align:top">http_accept_language</td><td valign="top">:</td><td><div>en-US,en;q=0.8,fr;q=0.6,es;q=0.4</div></td></tr><tr><td style="font-weight:bold;vertical-align:top">http_cache_control</td><td valign="top">:</td><td><div>no-cache</div></td></tr><tr><td style="font-weight:bold;vertical-align:top">http_connection</td><td valign="top">:</td><td><div>keep-alive</div></td></tr><tr><td style="font-weight:bold;vertical-align:top">http_cookie</td><td valign="top">:</td><td><div>session_id_shybreaker=127.0.0.1-88bacb70-274e-4d14-8468-5f836e1a38df; session_id_admin=127.0.0.1-8065b2d9-5e99-4b2d-9c69-79320a80c1d3; session_id_annotatit=127.0.0.1-e4294da3-7cb4-4bef-afc1-172f62a65b4f</div></td></tr><tr><td style="font-weight:bold;vertical-align:top">http_host</td><td valign="top">:</td><td><div>127.0.0.1:5000</div></td></tr><tr><td style="font-weight:bold;vertical-align:top">http_origin</td><td valign="top">:</td><td><div>http://127.0.0.1:5000</div></td></tr><tr><td style="font-weight:bold;vertical-align:top">http_pragma</td><td valign="top">:</td><td><div>no-cache</div></td></tr><tr><td style="font-weight:bold;vertical-align:top">http_referer</td><td valign="top">:</td><td><div>http://127.0.0.1:5000/view_video/6YcJljPGz4M</div></td></tr><tr><td style="font-weight:bold;vertical-align:top">http_user_agent</td><td valign="top">:</td><td><div>Mozilla/5.0 (X11; Linux x86_64) AppleWebKit/537.31 (KHTML, like Gecko) Chrome/26.0.1410.63 Safari/537.31</div></td></tr><tr><td style="font-weight:bold;vertical-align:top">http_x_requested_with</td><td valign="top">:</td><td><div>XMLHttpRequest</div></td></tr><tr><td style="font-weight:bold;vertical-align:top">is_jython</td><td valign="top">:</td><td><div>False</div></td></tr><tr><td style="font-weight:bold;vertical-align:top">is_pypy</td><td valign="top">:</td><td><div>False</div></td></tr><tr><td style="font-weight:bold;vertical-align:top">local_hosts</td><td valign="top">:</td><td><div><table><tr><td><div>cotita</div></td></tr><tr><td><div>::1</div></td></tr><tr><td><div>127.0.1.1</div></td></tr><tr><td><div>::ffff:127.0.0.1</div></td></tr><tr><td><div>127.0.0.1</div></td></tr></table></div></td></tr><tr><td style="font-weight:bold;vertical-align:top">path_info</td><td valign="top">:</td><td><div>/post_advice/6YcJljPGz4M</div></td></tr><tr><td style="font-weight:bold;vertical-align:top">query_string</td><td valign="top">:</td><td><div></div></td></tr><tr><td style="font-weight:bold;vertical-align:top">raw_uri</td><td valign="top">:</td><td><div>/post_advice/6YcJljPGz4M</div></td></tr><tr><td style="font-weight:bold;vertical-align:top">remote_addr</td><td valign="top">:</td><td><div>127.0.0.1</div></td></tr><tr><td style="font-weight:bold;vertical-align:top">remote_port</td><td valign="top">:</td><td><div>45731</div></td></tr><tr><td style="font-weight:bold;vertical-align:top">request_method</td><td valign="top">:</td><td><div>POST</div></td></tr><tr><td style="font-weight:bold;vertical-align:top">request_uri</td><td valign="top">:</td><td><div>/AnnotatIt/default/post_advice/6YcJljPGz4M</div></td></tr><tr><td style="font-weight:bold;vertical-align:top">script_name</td><td valign="top">:</td><td><div></div></td></tr><tr><td style="font-weight:bold;vertical-align:top">server_name</td><td valign="top">:</td><td><div>127.0.0.1</div></td></tr><tr><td style="font-weight:bold;vertical-align:top">server_port</td><td valign="top">:</td><td><div>5000</div></td></tr><tr><td style="font-weight:bold;vertical-align:top">server_protocol</td><td valign="top">:</td><td><div>HTTP/1.1</div></td></tr><tr><td style="font-weight:bold;vertical-align:top">server_software</td><td valign="top">:</td><td><div>gunicorn/0.17.2</div></td></tr><tr><td style="font-weight:bold;vertical-align:top">web2py_crontype</td><td valign="top">:</td><td><div>soft</div></td></tr><tr><td style="font-weight:bold;vertical-align:top">web2py_original_uri</td><td valign="top">:</td><td><div>/post_advice/6YcJljPGz4M</div></td></tr><tr><td style="font-weight:bold;vertical-align:top">web2py_path</td><td valign="top">:</td><td><div>/home/leo/projects/heroku_projects/annotatit</div></td></tr><tr><td style="font-weight:bold;vertical-align:top">web2py_version</td><td valign="top">:</td><td><div>2.4.6-stable+timestamp.2013.04.06.17.37.38</div></td></tr><tr><td style="font-weight:bold;vertical-align:top">wsgi_errors</td><td valign="top">:</td><td><div>&lt;open file &#x27;&lt;stderr&gt;&#x27;, mode &#x27;w&#x27; at 0x7f8afc124270&gt;</div></td></tr><tr><td style="font-weight:bold;vertical-align:top">wsgi_file_wrapper</td><td valign="top">:</td><td><div>&lt;class gunicorn.http.wsgi.FileWrapper at 0x277fbb0&gt;</div></td></tr><tr><td style="font-weight:bold;vertical-align:top">wsgi_input</td><td valign="top">:</td><td><div>&lt;gunicorn.http.body.Body object at 0x3413ad0&gt;</div></td></tr><tr><td style="font-weight:bold;vertical-align:top">wsgi_multiprocess</td><td valign="top">:</td><td><div>False</div></td></tr><tr><td style="font-weight:bold;vertical-align:top">wsgi_multithread</td><td valign="top">:</td><td><div>False</div></td></tr><tr><td style="font-weight:bold;vertical-align:top">wsgi_run_once</td><td valign="top">:</td><td><div>False</div></td></tr><tr><td style="font-weight:bold;vertical-align:top">wsgi_url_scheme</td><td valign="top">:</td><td><div>http</div></td></tr><tr><td style="font-weight:bold;vertical-align:top">wsgi_version</td><td valign="top">:</td><td><div><table><tr><td><div>1</div></td></tr><tr><td><div>0</div></td></tr></table></div></td></tr></table></div></td></tr><tr><td style="font-weight:bold;vertical-align:top">extension</td><td valign="top">:</td><td><div>html</div></td></tr><tr><td style="font-weight:bold;vertical-align:top">folder</td><td valign="top">:</td><td><div>/home/leo/projects/heroku_projects/annotatit/applications/AnnotatIt/</div></td></tr><tr><td style="font-weight:bold;vertical-align:top">function</td><td valign="top">:</td><td><div>post_advice</div></td></tr><tr><td style="font-weight:bold;vertical-align:top">get_vars</td><td valign="top">:</td><td><div><table></table></div></td></tr><tr><td style="font-weight:bold;vertical-align:top">global_settings</td><td valign="top">:</td><td><div><table><tr><td style="font-weight:bold;vertical-align:top">app_folders</td><td valign="top">:</td><td><div>set([&#x27;/home/leo/projects/heroku_projects/annotatit/applications/admin/&#x27;, &#x27;/home/leo/projects/heroku_projects/annotatit/applications/AnnotatIt/&#x27;])</div></td></tr><tr><td style="font-weight:bold;vertical-align:top">applications_parent</td><td valign="top">:</td><td><div>/home/leo/projects/heroku_projects/annotatit</div></td></tr><tr><td style="font-weight:bold;vertical-align:top">db_sessions</td><td valign="top">:</td><td><div>set([])</div></td></tr><tr><td style="font-weight:bold;vertical-align:top">debugging</td><td valign="top">:</td><td><div>False</div></td></tr><tr><td style="font-weight:bold;vertical-align:top">gluon_parent</td><td valign="top">:</td><td><div>/home/leo/projects/heroku_projects/annotatit</div></td></tr><tr><td style="font-weight:bold;vertical-align:top">is_jython</td><td valign="top">:</td><td><div>False</div></td></tr><tr><td style="font-weight:bold;vertical-align:top">is_pypy</td><td valign="top">:</td><td><div>False</div></td></tr><tr><td style="font-weight:bold;vertical-align:top">local_hosts</td><td valign="top">:</td><td><div><table><tr><td><div>cotita</div></td></tr><tr><td><div>::1</div></td></tr><tr><td><div>127.0.1.1</div></td></tr><tr><td><div>::ffff:127.0.0.1</div></td></tr><tr><td><div>127.0.0.1</div></td></tr></table></div></td></tr><tr><td style="font-weight:bold;vertical-align:top">web2py_crontype</td><td valign="top">:</td><td><div>soft</div></td></tr><tr><td style="font-weight:bold;vertical-align:top">web2py_version</td><td valign="top">:</td><td><div>2.4.6-stable+timestamp.2013.04.06.17.37.38</div></td></tr></table></div></td></tr><tr><td style="font-weight:bold;vertical-align:top">is_https</td><td valign="top">:</td><td><div>False</div></td></tr><tr><td style="font-weight:bold;vertical-align:top">is_local</td><td valign="top">:</td><td><div>True</div></td></tr><tr><td style="font-weight:bold;vertical-align:top">is_restful</td><td valign="top">:</td><td><div>False</div></td></tr><tr><td style="font-weight:bold;vertical-align:top">now</td><td valign="top">:</td><td><div>datetime.datetime(2013, 5, 13, 12, 19, 46, 976781)</div></td></tr><tr><td style="font-weight:bold;vertical-align:top">post_vars</td><td valign="top">:</td><td><div><table><tr><td style="font-weight:bold;vertical-align:top">advice_text</td><td valign="top">:</td><td><div>a ver que dice el debugger</div></td></tr><tr><td style="font-weight:bold;vertical-align:top">annotation_video_id</td><td valign="top">:</td><td><div>1</div></td></tr></table></div></td></tr><tr><td style="font-weight:bold;vertical-align:top">url</td><td valign="top">:</td><td><div>/post_advice/6YcJljPGz4M</div></td></tr><tr><td style="font-weight:bold;vertical-align:top">utcnow</td><td valign="top">:</td><td><div>datetime.datetime(2013, 5, 13, 10, 19, 46, 976790)</div></td></tr><tr><td style="font-weight:bold;vertical-align:top">uuid</td><td valign="top">:</td><td><div>AnnotatIt/127.0.0.1.2013-05-13.12-19-46.895f0b54-adbb-40fd-b22d-f198d8d4982e</div></td></tr><tr><td style="font-weight:bold;vertical-align:top">vars</td><td valign="top">:</td><td><div><table><tr><td style="font-weight:bold;vertical-align:top">advice_text</td><td valign="top">:</td><td><div>a ver que dice el debugger</div></td></tr><tr><td style="font-weight:bold;vertical-align:top">annotation_video_id</td><td valign="top">:</td><td><div>1</div></td></tr></table></div></td></tr><tr><td style="font-weight:bold;vertical-align:top">wsgi</td><td valign="top">:</td><td><div><table><tr><td style="font-weight:bold;vertical-align:top">environ</td><td valign="top">:</td><td><div><table><tr><td style="font-weight:bold;vertical-align:top">CONTENT_LENGTH</td><td valign="top">:</td><td><div>60</div></td></tr><tr><td style="font-weight:bold;vertical-align:top">CONTENT_TYPE</td><td valign="top">:</td><td><div>application/x-www-form-urlencoded; charset=UTF-8</div></td></tr><tr><td style="font-weight:bold;vertical-align:top">HTTP_ACCEPT</td><td valign="top">:</td><td><div>*/*</div></td></tr><tr><td style="font-weight:bold;vertical-align:top">HTTP_ACCEPT_CHARSET</td><td valign="top">:</td><td><div>ISO-8859-1,utf-8;q=0.7,*;q=0.3</div></td></tr><tr><td style="font-weight:bold;vertical-align:top">HTTP_ACCEPT_ENCODING</td><td valign="top">:</td><td><div>gzip,deflate,sdch</div></td></tr><tr><td style="font-weight:bold;vertical-align:top">HTTP_ACCEPT_LANGUAGE</td><td valign="top">:</td><td><div>en-US,en;q=0.8,fr;q=0.6,es;q=0.4</div></td></tr><tr><td style="font-weight:bold;vertical-align:top">HTTP_CACHE_CONTROL</td><td valign="top">:</td><td><div>no-cache</div></td></tr><tr><td style="font-weight:bold;vertical-align:top">HTTP_CONNECTION</td><td valign="top">:</td><td><div>keep-alive</div></td></tr><tr><td style="font-weight:bold;vertical-align:top">HTTP_COOKIE</td><td valign="top">:</td><td><div>session_id_shybreaker=127.0.0.1-88bacb70-274e-4d14-8468-5f836e1a38df; session_id_admin=127.0.0.1-8065b2d9-5e99-4b2d-9c69-79320a80c1d3; session_id_annotatit=127.0.0.1-e4294da3-7cb4-4bef-afc1-172f62a65b4f</div></td></tr><tr><td style="font-weight:bold;vertical-align:top">HTTP_HOST</td><td valign="top">:</td><td><div>127.0.0.1:5000</div></td></tr><tr><td style="font-weight:bold;vertical-align:top">HTTP_ORIGIN</td><td valign="top">:</td><td><div>http://127.0.0.1:5000</div></td></tr><tr><td style="font-weight:bold;vertical-align:top">HTTP_PRAGMA</td><td valign="top">:</td><td><div>no-cache</div></td></tr><tr><td style="font-weight:bold;vertical-align:top">HTTP_REFERER</td><td valign="top">:</td><td><div>http://127.0.0.1:5000/view_video/6YcJljPGz4M</div></td></tr><tr><td style="font-weight:bold;vertical-align:top">HTTP_USER_AGENT</td><td valign="top">:</td><td><div>Mozilla/5.0 (X11; Linux x86_64) AppleWebKit/537.31 (KHTML, like Gecko) Chrome/26.0.1410.63 Safari/537.31</div></td></tr><tr><td style="font-weight:bold;vertical-align:top">HTTP_X_REQUESTED_WITH</td><td valign="top">:</td><td><div>XMLHttpRequest</div></td></tr><tr><td style="font-weight:bold;vertical-align:top">PATH_INFO</td><td valign="top">:</td><td><div>/post_advice/6YcJljPGz4M</div></td></tr><tr><td style="font-weight:bold;vertical-align:top">QUERY_STRING</td><td valign="top">:</td><td><div></div></td></tr><tr><td style="font-weight:bold;vertical-align:top">RAW_URI</td><td valign="top">:</td><td><div>/post_advice/6YcJljPGz4M</div></td></tr><tr><td style="font-weight:bold;vertical-align:top">REMOTE_ADDR</td><td valign="top">:</td><td><div>127.0.0.1</div></td></tr><tr><td style="font-weight:bold;vertical-align:top">REMOTE_PORT</td><td valign="top">:</td><td><div>45731</div></td></tr><tr><td style="font-weight:bold;vertical-align:top">REQUEST_METHOD</td><td valign="top">:</td><td><div>POST</div></td></tr><tr><td style="font-weight:bold;vertical-align:top">REQUEST_URI</td><td valign="top">:</td><td><div>/AnnotatIt/default/post_advice/6YcJljPGz4M</div></td></tr><tr><td style="font-weight:bold;vertical-align:top">SCRIPT_NAME</td><td valign="top">:</td><td><div></div></td></tr><tr><td style="font-weight:bold;vertical-align:top">SERVER_NAME</td><td valign="top">:</td><td><div>127.0.0.1</div></td></tr><tr><td style="font-weight:bold;vertical-align:top">SERVER_PORT</td><td valign="top">:</td><td><div>5000</div></td></tr><tr><td style="font-weight:bold;vertical-align:top">SERVER_PROTOCOL</td><td valign="top">:</td><td><div>HTTP/1.1</div></td></tr><tr><td style="font-weight:bold;vertical-align:top">SERVER_SOFTWARE</td><td valign="top">:</td><td><div>gunicorn/0.17.2</div></td></tr><tr><td style="font-weight:bold;vertical-align:top">WEB2PY_ORIGINAL_URI</td><td valign="top">:</td><td><div>/post_advice/6YcJljPGz4M</div></td></tr><tr><td style="font-weight:bold;vertical-align:top">gunicorn.socket</td><td valign="top">:</td><td><div>&lt;socket._socketobject object at 0x359e590&gt;</div></td></tr><tr><td style="font-weight:bold;vertical-align:top">wsgi.errors</td><td valign="top">:</td><td><div>&lt;open file &#x27;&lt;stderr&gt;&#x27;, mode &#x27;w&#x27; at 0x7f8afc124270&gt;</div></td></tr><tr><td style="font-weight:bold;vertical-align:top">wsgi.file_wrapper</td><td valign="top">:</td><td><div>&lt;class gunicorn.http.wsgi.FileWrapper at 0x277fbb0&gt;</div></td></tr><tr><td style="font-weight:bold;vertical-align:top">wsgi.input</td><td valign="top">:</td><td><div>&lt;open file &#x27;&lt;fdopen&gt;&#x27;, mode &#x27;w+b&#x27; at 0x33e0c90&gt;</div></td></tr><tr><td style="font-weight:bold;vertical-align:top">wsgi.multiprocess</td><td valign="top">:</td><td><div>False</div></td></tr><tr><td style="font-weight:bold;vertical-align:top">wsgi.multithread</td><td valign="top">:</td><td><div>False</div></td></tr><tr><td style="font-weight:bold;vertical-align:top">wsgi.run_once</td><td valign="top">:</td><td><div>False</div></td></tr><tr><td style="font-weight:bold;vertical-align:top">wsgi.url_scheme</td><td valign="top">:</td><td><div>http</div></td></tr><tr><td style="font-weight:bold;vertical-align:top">wsgi.version</td><td valign="top">:</td><td><div>1</div></td></tr></table></div></td></tr></table></div></td></tr></table></div>'
tRp58
sS'frames'
p59
(lp60
(dp61
S'file'
p62
S'/home/leo/projects/heroku_projects/annotatit/gluon/restricted.py'
p63
sS'dump'
p64
(dp65
S'environment'
p66
S"{'A': <class 'gluon.html.A'>, 'ANY_OF': <class 'gluon.validators.ANY_OF'>, 'APP_DOMAIN_NAME': 'AnnotatIt.com', 'APP_NAME': 'AnnotatIt', 'Auth': <class 'gluon.tools.Auth'>, 'B': <class 'gluon.html.B'>, 'BEAUTIFY': <class 'gluon.html.BEAUTIFY'>, 'BODY': <class 'gluon.html.BODY'>, 'BR': <class 'gluon.html.BR'>, 'BUTTON': <class 'gluon.html.BUTTON'>, ...}"
p67
sS'ccode'
p68
S'<code object <module> at 0x3573930, file "/home/...tions/AnnotatIt/controllers/default.py", line 13>'
p69
ssS'lnum'
p70
I212
sS'lines'
p71
(dp72
I207
S'    try:'
p73
sI208
S'        if isinstance(code, types.CodeType):'
p74
sI209
S'            ccode = code'
p75
sI210
S'        else:'
p76
sI211
S'            ccode = compile2(code, layer)'
p77
sI212
S'        exec ccode in environment'
p78
sI213
S'    except HTTP:'
p79
sI214
S'        raise'
p80
sI215
S'    except RestrictedError:'
p81
sI216
S'        # do not encapsulate (obfuscate) the original RestrictedError'
p82
ssS'call'
p83
S"(code='# -*- coding: utf-8 -*-\\n# this file is released ...))\\n\\nresponse._vars=response._caller(post_advice)\\n', environment={'A': <class 'gluon.html.A'>, 'ANY_OF': <class 'gluon.validators.ANY_OF'>, 'APP_DOMAIN_NAME': 'AnnotatIt.com', 'APP_NAME': 'AnnotatIt', 'Auth': <class 'gluon.tools.Auth'>, 'B': <class 'gluon.html.B'>, 'BEAUTIFY': <class 'gluon.html.BEAUTIFY'>, 'BODY': <class 'gluon.html.BODY'>, 'BR': <class 'gluon.html.BR'>, 'BUTTON': <class 'gluon.html.BUTTON'>, ...}, layer='/home/leo/projects/heroku_projects/annotatit/applications/AnnotatIt/controllers/default.py')"
p84
sS'func'
p85
S'restricted'
p86
sa(dp87
g62
S'/home/leo/projects/heroku_projects/annotatit/applications/AnnotatIt/controllers/default.py'
p88
sg64
(dp89
sg70
I286
sg71
(dp90
I275
S'    http://..../[app]/default/data/update/[table]/[id]'
p91
sI276
S'    http://..../[app]/default/data/delete/[table]/[id]'
p92
sI277
S'    http://..../[app]/default/data/select/[table]'
p93
sI278
S'    http://..../[app]/default/data/search/[table]'
p94
sI279
S'    but URLs must be signed, i.e. linked with'
p95
sI280
S"      A('table',_href=URL('data/tables',user_signature=True))"
p96
sI281
S'    or with the signed load operator'
p97
sI282
S"      LOAD('default','data.load',args='tables',ajax=True,user_signature=True)"
p98
sI283
S'    """'
p99
sI284
S'    return dict(form=crud())'
p100
ssg83
S'()'
p101
sg85
S'<module>'
p102
sa(dp103
g62
S'/home/leo/projects/heroku_projects/annotatit/gluon/globals.py'
p104
sg64
(dp105
S'self'
p106
S'undefined'
p107
sS'f'
S'<function post_advice>'
p108
ssg70
I194
sg71
(dp109
I192
S"        self.delimiters = ('{{', '}}')"
p110
sI193
S'        self._vars = None'
p111
sI194
S'        self._caller = lambda f: f()'
p112
sI195
S'        self._view_environment = None'
p113
sI196
S'        self._custom_commit = None'
p114
sI197
S'        self._custom_rollback = None'
p115
sI198
S''
sI189
S'        self.menu = []             # used by the default view layout'
p116
sI190
S'        self.files = []            # used by web2py_ajax.html'
p117
sI191
S'        self.generic_patterns = []  # patterns to allow generic views'
p118
ssg83
S'(f=<function post_advice>)'
p119
sg85
S'<lambda>'
p120
sa(dp121
g62
S'/home/leo/projects/heroku_projects/annotatit/gluon/tools.py'
p122
sg64
(dp123
S'action'
p124
S'<function post_advice>'
p125
sS'a'
S'()'
p126
sS'b'
g45
ssg70
I2976
sg71
(dp127
I2976
S'                return action(*a, **b)'
p128
sI2977
S'            f.__doc__ = action.__doc__'
p129
sI2978
S'            f.__name__ = action.__name__'
p130
sI2979
S'            f.__dict__.update(action.__dict__)'
p131
sI2980
S'            return f'
p132
sI2971
S'                    flag = condition'
p133
sI2972
S'                if not flag:'
p134
sI2973
S'                    current.session.flash = self.messages.access_denied'
p135
sI2974
S'                    return call_or_redirect('
p136
sI2975
S'                        self.settings.on_failed_authorization)'
p137
ssg83
S'(*a=(), **b={})'
p138
sg85
S'f'
sa(dp139
g62
S'/home/leo/projects/heroku_projects/annotatit/applications/AnnotatIt/controllers/default.py'
p140
sg64
(dp141
S'form.vars'
p142
S"<Storage {'annotator_id': 1}>"
p143
sS'os'
p144
g107
sS'form'
p145
S'<gluon.sqlhtml.SQLFORM object>'
p146
ssg70
I159
sg71
(dp147
I160
S'    form.vars.video_id = form.vars.annotation_video_id'
p148
sI161
S'    if form.accepts(request, formname=None):'
p149
sI162
S"        response.flash = T('Your advice has been successfully posted')"
p150
sI163
S'        #return DIV(T("Comment posted"))'
p151
sI154
S'    ajax call for the view_video view for commenting on a video'
p152
sI155
S'    """'
p153
sI156
S'    form = SQLFORM(db.advice,showid = False,'
p154
sI157
S"                    fields=[ 'advice_text'],)"
p155
sI158
S'    form.vars.annotator_id = auth.user_id'
p156
sI159
S'    os.system("echo advice vars: \'"+form.vars+"\'")'
p157
ssg83
S'()'
p158
sg85
S'post_advice'
p159
sasS'pyver'
p160
S'Python 2.7.3: /home/leo/projects/heroku_projects/annotatit/venv/bin/python (prefix: /home/leo/projects/heroku_projects/annotatit/venv)'
p161
sS'session'
p162
g57
(S's\xe5\x08\x00\x00<div><table><tr><td style="font-weight:bold;vertical-align:top">auth</td><td valign="top">:</td><td><div><table><tr><td style="font-weight:bold;vertical-align:top">expiration</td><td valign="top">:</td><td><div>2592000</div></td></tr><tr><td style="font-weight:bold;vertical-align:top">hmac_key</td><td valign="top">:</td><td><div>7a6ef0c6-f505-44de-b8c2-5d46338e65e5</div></td></tr><tr><td style="font-weight:bold;vertical-align:top">last_visit</td><td valign="top">:</td><td><div>datetime.datetime(2013, 4, 24, 13, 50, 40, 234273)</div></td></tr><tr><td style="font-weight:bold;vertical-align:top">remember</td><td valign="top">:</td><td><div>True</div></td></tr><tr><td style="font-weight:bold;vertical-align:top">user</td><td valign="top">:</td><td><div><table><tr><td style="font-weight:bold;vertical-align:top">email</td><td valign="top">:</td><td><div>leo.m.rocha@gmail.com</div></td></tr><tr><td style="font-weight:bold;vertical-align:top">first_name</td><td valign="top">:</td><td><div>leo</div></td></tr><tr><td style="font-weight:bold;vertical-align:top">id</td><td valign="top">:</td><td><div>1</div></td></tr><tr><td style="font-weight:bold;vertical-align:top">last_name</td><td valign="top">:</td><td><div>rocha</div></td></tr><tr><td style="font-weight:bold;vertical-align:top">registration_id</td><td valign="top">:</td><td><div></div></td></tr><tr><td style="font-weight:bold;vertical-align:top">registration_key</td><td valign="top">:</td><td><div></div></td></tr><tr><td style="font-weight:bold;vertical-align:top">reset_password_key</td><td valign="top">:</td><td><div></div></td></tr></table></div></td></tr><tr><td style="font-weight:bold;vertical-align:top">user_groups</td><td valign="top">:</td><td><div><table><tr><td style="font-weight:bold;vertical-align:top">1</td><td valign="top">:</td><td><div>user_1</div></td></tr></table></div></td></tr></table></div></td></tr><tr><td style="font-weight:bold;vertical-align:top">flash</td><td valign="top">:</td><td><div>None</div></td></tr><tr><td style="font-weight:bold;vertical-align:top">last_orderby</td><td valign="top">:</td><td><div>None</div></td></tr><tr><td style="font-weight:bold;vertical-align:top">last_query</td><td valign="top">:</td><td><div>db.advice.id&gt;0</div></td></tr></table></div>'
tRp163
sS'etype'
p164
S"<type 'exceptions.NameError'>"
p165
sS'date'
p166
S'Mon May 13 12:19:47 2013'
p167
sS'response'
p168
g57
(S'sZ\x19\x00\x00<div><table><tr><td style="font-weight:bold;vertical-align:top">body</td><td valign="top">:</td><td><div>&lt;cStringIO.StringO object at 0x2a76b58&gt;</div></td></tr><tr><td style="font-weight:bold;vertical-align:top">cookies</td><td valign="top">:</td><td><div><table><tr><td style="font-weight:bold;vertical-align:top">session_id_annotatit</td><td valign="top">:</td><td><div>127.0.0.1-e4294da3-7cb4-4bef-afc1-172f62a65b4f<table><tr><td style="font-weight:bold;vertical-align:top">comment</td><td valign="top">:</td><td><div></div></td></tr><tr><td style="font-weight:bold;vertical-align:top">domain</td><td valign="top">:</td><td><div></div></td></tr><tr><td style="font-weight:bold;vertical-align:top">expires</td><td valign="top">:</td><td><div>2592000</div></td></tr><tr><td style="font-weight:bold;vertical-align:top">httponly</td><td valign="top">:</td><td><div></div></td></tr><tr><td style="font-weight:bold;vertical-align:top">max-age</td><td valign="top">:</td><td><div></div></td></tr><tr><td style="font-weight:bold;vertical-align:top">path</td><td valign="top">:</td><td><div>/</div></td></tr><tr><td style="font-weight:bold;vertical-align:top">secure</td><td valign="top">:</td><td><div></div></td></tr><tr><td style="font-weight:bold;vertical-align:top">version</td><td valign="top">:</td><td><div></div></td></tr></table></div></td></tr></table></div></td></tr><tr><td style="font-weight:bold;vertical-align:top">delimiters</td><td valign="top">:</td><td><div><table><tr><td><div>{{</div></td></tr><tr><td><div>}}</div></td></tr></table></div></td></tr><tr><td style="font-weight:bold;vertical-align:top">files</td><td valign="top">:</td><td><div><table></table></div></td></tr><tr><td style="font-weight:bold;vertical-align:top">flash</td><td valign="top">:</td><td><div></div></td></tr><tr><td style="font-weight:bold;vertical-align:top">generic_patterns</td><td valign="top">:</td><td><div><table><tr><td><div>*</div></td></tr></table></div></td></tr><tr><td style="font-weight:bold;vertical-align:top">google_analytics_id</td><td valign="top">:</td><td><div>None</div></td></tr><tr><td style="font-weight:bold;vertical-align:top">headers</td><td valign="top">:</td><td><div><table><tr><td style="font-weight:bold;vertical-align:top">X-Powered-By</td><td valign="top">:</td><td><div>web2py</div></td></tr></table></div></td></tr><tr><td style="font-weight:bold;vertical-align:top">logo</td><td valign="top">:</td><td><div><a class="brand" href="http://www.annotatit.com/"><b>AnnotatIt</b>&trade;&nbsp;</a></div></td></tr><tr><td style="font-weight:bold;vertical-align:top">menu</td><td valign="top">:</td><td><div><table><tr><td><div><table><tr><td><div>Videos</div></td></tr><tr><td><div>False</div></td></tr><tr><td><div>/videos</div></td></tr><tr><td><div><table><tr><td><div><table><tr><td><div>My videos</div></td></tr><tr><td><div>False</div></td></tr><tr><td><div>/my_videos</div></td></tr></table></div></td></tr><tr><td><div><table><tr><td><div>Upload Video</div></td></tr><tr><td><div>False</div></td></tr><tr><td><div>/upload_video</div></td></tr></table></div></td></tr></table></div></td></tr></table></div></td></tr></table></div></td></tr><tr><td style="font-weight:bold;vertical-align:top">meta</td><td valign="top">:</td><td><div><table><tr><td style="font-weight:bold;vertical-align:top">author</td><td valign="top">:</td><td><div>Leonardo M. Rocha &lt;you@example.com&gt;</div></td></tr><tr><td style="font-weight:bold;vertical-align:top">description</td><td valign="top">:</td><td><div>Synchronized Video Annotation for Education</div></td></tr><tr><td style="font-weight:bold;vertical-align:top">generator</td><td valign="top">:</td><td><div>Leonardo M. Rocha</div></td></tr><tr><td style="font-weight:bold;vertical-align:top">keywords</td><td valign="top">:</td><td><div>personal development, leadership, spokesman, video, audio, annotation, social annotation, video annotation, music annotation, music education, online music education, online music video tagging</div></td></tr></table></div></td></tr><tr><td style="font-weight:bold;vertical-align:top">models_to_run</td><td valign="top">:</td><td><div><table><tr><td><div>^\\w+\\.py$</div></td></tr><tr><td><div>^default/\\w+\\.py$</div></td></tr><tr><td><div>^default/post_advice/\\w+\\.py$</div></td></tr></table></div></td></tr><tr><td style="font-weight:bold;vertical-align:top">postprocessing</td><td valign="top">:</td><td><div><table></table></div></td></tr><tr><td style="font-weight:bold;vertical-align:top">session_cookie_expires</td><td valign="top">:</td><td><div>None</div></td></tr><tr><td style="font-weight:bold;vertical-align:top">session_data_name</td><td valign="top">:</td><td><div>session_data_annotatit</div></td></tr><tr><td style="font-weight:bold;vertical-align:top">session_file</td><td valign="top">:</td><td><div>&lt;open file &#x27;/home/leo/projects/heroku_projects/annotatit/applications/AnnotatIt/sessions/127.0.0.1-e4294da3-7cb4-4bef-afc1-172f62a65b4f&#x27;, mode &#x27;rb+&#x27; at 0x33e0c00&gt;</div></td></tr><tr><td style="font-weight:bold;vertical-align:top">session_filename</td><td valign="top">:</td><td><div>/home/leo/projects/heroku_projects/annotatit/applications/AnnotatIt/sessions/127.0.0.1-e4294da3-7cb4-4bef-afc1-172f62a65b4f</div></td></tr><tr><td style="font-weight:bold;vertical-align:top">session_id</td><td valign="top">:</td><td><div>127.0.0.1-e4294da3-7cb4-4bef-afc1-172f62a65b4f</div></td></tr><tr><td style="font-weight:bold;vertical-align:top">session_id_name</td><td valign="top">:</td><td><div>session_id_annotatit</div></td></tr><tr><td style="font-weight:bold;vertical-align:top">session_locked</td><td valign="top">:</td><td><div>True</div></td></tr><tr><td style="font-weight:bold;vertical-align:top">session_new</td><td valign="top">:</td><td><div>False</div></td></tr><tr><td style="font-weight:bold;vertical-align:top">session_storage_type</td><td valign="top">:</td><td><div>file</div></td></tr><tr><td style="font-weight:bold;vertical-align:top">status</td><td valign="top">:</td><td><div>200</div></td></tr><tr><td style="font-weight:bold;vertical-align:top">subtitle</td><td valign="top">:</td><td><div>Synchronized Video Annotation for Education</div></td></tr><tr><td style="font-weight:bold;vertical-align:top">title</td><td valign="top">:</td><td><div>Annotatit</div></td></tr><tr><td style="font-weight:bold;vertical-align:top">view</td><td valign="top">:</td><td><div>default/post_advice.html</div></td></tr></table></div>'
tRp169
sS'locals'
p170
(dp171
S'form'
p172
S'<gluon.sqlhtml.SQLFORM object>'
p173
sssS'traceback'
p174
S'Traceback (most recent call last):\n  File "/home/leo/projects/heroku_projects/annotatit/gluon/restricted.py", line 212, in restricted\n    exec ccode in environment\n  File "/home/leo/projects/heroku_projects/annotatit/applications/AnnotatIt/controllers/default.py", line 286, in <module>\n  File "/home/leo/projects/heroku_projects/annotatit/gluon/globals.py", line 194, in <lambda>\n    self._caller = lambda f: f()\n  File "/home/leo/projects/heroku_projects/annotatit/gluon/tools.py", line 2976, in f\n    return action(*a, **b)\n  File "/home/leo/projects/heroku_projects/annotatit/applications/AnnotatIt/controllers/default.py", line 159, in post_advice\n    os.system("echo advice vars: \'"+form.vars+"\'")\nNameError: global name \'os\' is not defined\n'
p175
s.